Archive member included to satisfy reference by file (symbol)

/Applications/MCUXpressoIDE_11.7.0_9198/ide/plugins/com.nxp.mcuxpresso.tools.macosx_11.7.0.202209140929/tools/bin/../lib/gcc/arm-none-eabi/10.3.1/../../../../arm-none-eabi/lib/thumb/v7e-m+fp/hard/libcr_nohost_nf.a(_cr__main.o)
                              ./startup/startup_mimxrt1176_cm7.o (__main)
/Applications/MCUXpressoIDE_11.7.0_9198/ide/plugins/com.nxp.mcuxpresso.tools.macosx_11.7.0.202209140929/tools/bin/../lib/gcc/arm-none-eabi/10.3.1/../../../../arm-none-eabi/lib/thumb/v7e-m+fp/hard/libcr_c.a(memcpy.o)
                              ./utilities/fsl_str.o (memcpy)
/Applications/MCUXpressoIDE_11.7.0_9198/ide/plugins/com.nxp.mcuxpresso.tools.macosx_11.7.0.202209140929/tools/bin/../lib/gcc/arm-none-eabi/10.3.1/../../../../arm-none-eabi/lib/thumb/v7e-m+fp/hard/libcr_c.a(memset.o)
                              ./utilities/fsl_debug_console.o (memset)
/Applications/MCUXpressoIDE_11.7.0_9198/ide/plugins/com.nxp.mcuxpresso.tools.macosx_11.7.0.202209140929/tools/bin/../lib/gcc/arm-none-eabi/10.3.1/../../../../arm-none-eabi/lib/thumb/v7e-m+fp/hard/libcr_c.a(alloc.o)
                              ./drivers/fsl_common.o (malloc)
/Applications/MCUXpressoIDE_11.7.0_9198/ide/plugins/com.nxp.mcuxpresso.tools.macosx_11.7.0.202209140929/tools/bin/../lib/gcc/arm-none-eabi/10.3.1/../../../../arm-none-eabi/lib/thumb/v7e-m+fp/hard/libcr_c.a(errno.o)
                              ./utilities/fsl_str.o (errno)
/Applications/MCUXpressoIDE_11.7.0_9198/ide/plugins/com.nxp.mcuxpresso.tools.macosx_11.7.0.202209140929/tools/bin/../lib/gcc/arm-none-eabi/10.3.1/../../../../arm-none-eabi/lib/thumb/v7e-m+fp/hard/libcr_c.a(initio.o)
                              /Applications/MCUXpressoIDE_11.7.0_9198/ide/plugins/com.nxp.mcuxpresso.tools.macosx_11.7.0.202209140929/tools/bin/../lib/gcc/arm-none-eabi/10.3.1/../../../../arm-none-eabi/lib/thumb/v7e-m+fp/hard/libcr_nohost_nf.a(_cr__main.o) (_initio)
/Applications/MCUXpressoIDE_11.7.0_9198/ide/plugins/com.nxp.mcuxpresso.tools.macosx_11.7.0.202209140929/tools/bin/../lib/gcc/arm-none-eabi/10.3.1/../../../../arm-none-eabi/lib/thumb/v7e-m+fp/hard/libcr_c.a(scanf.o)
                              ./utilities/fsl_str.o (strtoul)
/Applications/MCUXpressoIDE_11.7.0_9198/ide/plugins/com.nxp.mcuxpresso.tools.macosx_11.7.0.202209140929/tools/bin/../lib/gcc/arm-none-eabi/10.3.1/../../../../arm-none-eabi/lib/thumb/v7e-m+fp/hard/libcr_c.a(setvbuf.o)
                              /Applications/MCUXpressoIDE_11.7.0_9198/ide/plugins/com.nxp.mcuxpresso.tools.macosx_11.7.0.202209140929/tools/bin/../lib/gcc/arm-none-eabi/10.3.1/../../../../arm-none-eabi/lib/thumb/v7e-m+fp/hard/libcr_c.a(initio.o) (setvbuf)
/Applications/MCUXpressoIDE_11.7.0_9198/ide/plugins/com.nxp.mcuxpresso.tools.macosx_11.7.0.202209140929/tools/bin/../lib/gcc/arm-none-eabi/10.3.1/../../../../arm-none-eabi/lib/thumb/v7e-m+fp/hard/libcr_c.a(strlen.o)
                              ./utilities/fsl_str.o (strlen)
/Applications/MCUXpressoIDE_11.7.0_9198/ide/plugins/com.nxp.mcuxpresso.tools.macosx_11.7.0.202209140929/tools/bin/../lib/gcc/arm-none-eabi/10.3.1/../../../../arm-none-eabi/lib/thumb/v7e-m+fp/hard/libcr_c.a(ungetc.o)
                              /Applications/MCUXpressoIDE_11.7.0_9198/ide/plugins/com.nxp.mcuxpresso.tools.macosx_11.7.0.202209140929/tools/bin/../lib/gcc/arm-none-eabi/10.3.1/../../../../arm-none-eabi/lib/thumb/v7e-m+fp/hard/libcr_c.a(scanf.o) (ungetc)
/Applications/MCUXpressoIDE_11.7.0_9198/ide/plugins/com.nxp.mcuxpresso.tools.macosx_11.7.0.202209140929/tools/bin/../lib/gcc/arm-none-eabi/10.3.1/../../../../arm-none-eabi/lib/thumb/v7e-m+fp/hard/libcr_c.a(__fillbuf.o)
                              /Applications/MCUXpressoIDE_11.7.0_9198/ide/plugins/com.nxp.mcuxpresso.tools.macosx_11.7.0.202209140929/tools/bin/../lib/gcc/arm-none-eabi/10.3.1/../../../../arm-none-eabi/lib/thumb/v7e-m+fp/hard/libcr_c.a(scanf.o) (__filbuf)
/Applications/MCUXpressoIDE_11.7.0_9198/ide/plugins/com.nxp.mcuxpresso.tools.macosx_11.7.0.202209140929/tools/bin/../lib/gcc/arm-none-eabi/10.3.1/../../../../arm-none-eabi/lib/thumb/v7e-m+fp/hard/libcr_c.a(__init_alloc.o)
                              /Applications/MCUXpressoIDE_11.7.0_9198/ide/plugins/com.nxp.mcuxpresso.tools.macosx_11.7.0.202209140929/tools/bin/../lib/gcc/arm-none-eabi/10.3.1/../../../../arm-none-eabi/lib/thumb/v7e-m+fp/hard/libcr_c.a(alloc.o) (__heaps)
/Applications/MCUXpressoIDE_11.7.0_9198/ide/plugins/com.nxp.mcuxpresso.tools.macosx_11.7.0.202209140929/tools/bin/../lib/gcc/arm-none-eabi/10.3.1/../../../../arm-none-eabi/lib/thumb/v7e-m+fp/hard/libcr_c.a(_cr_sbrk.o)
                              /Applications/MCUXpressoIDE_11.7.0_9198/ide/plugins/com.nxp.mcuxpresso.tools.macosx_11.7.0.202209140929/tools/bin/../lib/gcc/arm-none-eabi/10.3.1/../../../../arm-none-eabi/lib/thumb/v7e-m+fp/hard/libcr_c.a(alloc.o) (_sbrk)
/Applications/MCUXpressoIDE_11.7.0_9198/ide/plugins/com.nxp.mcuxpresso.tools.macosx_11.7.0.202209140929/tools/bin/../lib/gcc/arm-none-eabi/10.3.1/../../../../arm-none-eabi/lib/thumb/v7e-m+fp/hard/libcr_c.a(_deferredlazyseek.o)
                              /Applications/MCUXpressoIDE_11.7.0_9198/ide/plugins/com.nxp.mcuxpresso.tools.macosx_11.7.0.202209140929/tools/bin/../lib/gcc/arm-none-eabi/10.3.1/../../../../arm-none-eabi/lib/thumb/v7e-m+fp/hard/libcr_c.a(__fillbuf.o) (_deferredlazyseek)
/Applications/MCUXpressoIDE_11.7.0_9198/ide/plugins/com.nxp.mcuxpresso.tools.macosx_11.7.0.202209140929/tools/bin/../lib/gcc/arm-none-eabi/10.3.1/../../../../arm-none-eabi/lib/thumb/v7e-m+fp/hard/libcr_c.a(_fdopen.o)
                              /Applications/MCUXpressoIDE_11.7.0_9198/ide/plugins/com.nxp.mcuxpresso.tools.macosx_11.7.0.202209140929/tools/bin/../lib/gcc/arm-none-eabi/10.3.1/../../../../arm-none-eabi/lib/thumb/v7e-m+fp/hard/libcr_c.a(initio.o) (_fdopen)
/Applications/MCUXpressoIDE_11.7.0_9198/ide/plugins/com.nxp.mcuxpresso.tools.macosx_11.7.0.202209140929/tools/bin/../lib/gcc/arm-none-eabi/10.3.1/../../../../arm-none-eabi/lib/thumb/v7e-m+fp/hard/libcr_c.a(_fflush.o)
                              /Applications/MCUXpressoIDE_11.7.0_9198/ide/plugins/com.nxp.mcuxpresso.tools.macosx_11.7.0.202209140929/tools/bin/../lib/gcc/arm-none-eabi/10.3.1/../../../../arm-none-eabi/lib/thumb/v7e-m+fp/hard/libcr_c.a(__fillbuf.o) (_fflush)
/Applications/MCUXpressoIDE_11.7.0_9198/ide/plugins/com.nxp.mcuxpresso.tools.macosx_11.7.0.202209140929/tools/bin/../lib/gcc/arm-none-eabi/10.3.1/../../../../arm-none-eabi/lib/thumb/v7e-m+fp/hard/libcr_c.a(_frexpl.o)
                              /Applications/MCUXpressoIDE_11.7.0_9198/ide/plugins/com.nxp.mcuxpresso.tools.macosx_11.7.0.202209140929/tools/bin/../lib/gcc/arm-none-eabi/10.3.1/../../../../arm-none-eabi/lib/thumb/v7e-m+fp/hard/libcr_c.a(scanf.o) (_frexpl)
/Applications/MCUXpressoIDE_11.7.0_9198/ide/plugins/com.nxp.mcuxpresso.tools.macosx_11.7.0.202209140929/tools/bin/../lib/gcc/arm-none-eabi/10.3.1/../../../../arm-none-eabi/lib/thumb/v7e-m+fp/hard/libcr_c.a(_ldexpl.o)
                              /Applications/MCUXpressoIDE_11.7.0_9198/ide/plugins/com.nxp.mcuxpresso.tools.macosx_11.7.0.202209140929/tools/bin/../lib/gcc/arm-none-eabi/10.3.1/../../../../arm-none-eabi/lib/thumb/v7e-m+fp/hard/libcr_c.a(scanf.o) (_ldexpl)
/Applications/MCUXpressoIDE_11.7.0_9198/ide/plugins/com.nxp.mcuxpresso.tools.macosx_11.7.0.202209140929/tools/bin/../lib/gcc/arm-none-eabi/10.3.1/../../../../arm-none-eabi/lib/thumb/v7e-m+fp/hard/libcr_c.a(_writebuf.o)
                              /Applications/MCUXpressoIDE_11.7.0_9198/ide/plugins/com.nxp.mcuxpresso.tools.macosx_11.7.0.202209140929/tools/bin/../lib/gcc/arm-none-eabi/10.3.1/../../../../arm-none-eabi/lib/thumb/v7e-m+fp/hard/libcr_c.a(_deferredlazyseek.o) (_Cwritebuf)
/Applications/MCUXpressoIDE_11.7.0_9198/ide/plugins/com.nxp.mcuxpresso.tools.macosx_11.7.0.202209140929/tools/bin/../lib/gcc/arm-none-eabi/10.3.1/../../../../arm-none-eabi/lib/thumb/v7e-m+fp/hard/libcr_c.a(ctype.o)
                              /Applications/MCUXpressoIDE_11.7.0_9198/ide/plugins/com.nxp.mcuxpresso.tools.macosx_11.7.0.202209140929/tools/bin/../lib/gcc/arm-none-eabi/10.3.1/../../../../arm-none-eabi/lib/thumb/v7e-m+fp/hard/libcr_c.a(scanf.o) (__ctype)
/Applications/MCUXpressoIDE_11.7.0_9198/ide/plugins/com.nxp.mcuxpresso.tools.macosx_11.7.0.202209140929/tools/bin/../lib/gcc/arm-none-eabi/10.3.1/../../../../arm-none-eabi/lib/thumb/v7e-m+fp/hard/libcr_c.a(fclose.o)
                              /Applications/MCUXpressoIDE_11.7.0_9198/ide/plugins/com.nxp.mcuxpresso.tools.macosx_11.7.0.202209140929/tools/bin/../lib/gcc/arm-none-eabi/10.3.1/../../../../arm-none-eabi/lib/thumb/v7e-m+fp/hard/libcr_c.a(initio.o) (fclose)
/Applications/MCUXpressoIDE_11.7.0_9198/ide/plugins/com.nxp.mcuxpresso.tools.macosx_11.7.0.202209140929/tools/bin/../lib/gcc/arm-none-eabi/10.3.1/../../../../arm-none-eabi/lib/thumb/v7e-m+fp/hard/libcr_c.a(fflush.o)
                              /Applications/MCUXpressoIDE_11.7.0_9198/ide/plugins/com.nxp.mcuxpresso.tools.macosx_11.7.0.202209140929/tools/bin/../lib/gcc/arm-none-eabi/10.3.1/../../../../arm-none-eabi/lib/thumb/v7e-m+fp/hard/libcr_c.a(fclose.o) (fflush)
/Applications/MCUXpressoIDE_11.7.0_9198/ide/plugins/com.nxp.mcuxpresso.tools.macosx_11.7.0.202209140929/tools/bin/../lib/gcc/arm-none-eabi/10.3.1/../../../../arm-none-eabi/lib/thumb/v7e-m+fp/hard/libcr_c.a(fseek.o)
                              /Applications/MCUXpressoIDE_11.7.0_9198/ide/plugins/com.nxp.mcuxpresso.tools.macosx_11.7.0.202209140929/tools/bin/../lib/gcc/arm-none-eabi/10.3.1/../../../../arm-none-eabi/lib/thumb/v7e-m+fp/hard/libcr_c.a(_deferredlazyseek.o) (fseek)
/Applications/MCUXpressoIDE_11.7.0_9198/ide/plugins/com.nxp.mcuxpresso.tools.macosx_11.7.0.202209140929/tools/bin/../lib/gcc/arm-none-eabi/10.3.1/../../../../arm-none-eabi/lib/thumb/v7e-m+fp/hard/libcr_c.a(ftell.o)
                              /Applications/MCUXpressoIDE_11.7.0_9198/ide/plugins/com.nxp.mcuxpresso.tools.macosx_11.7.0.202209140929/tools/bin/../lib/gcc/arm-none-eabi/10.3.1/../../../../arm-none-eabi/lib/thumb/v7e-m+fp/hard/libcr_c.a(fseek.o) (ftell)
/Applications/MCUXpressoIDE_11.7.0_9198/ide/plugins/com.nxp.mcuxpresso.tools.macosx_11.7.0.202209140929/tools/bin/../lib/gcc/arm-none-eabi/10.3.1/../../../../arm-none-eabi/lib/thumb/v7e-m+fp/hard/libcr_c.a(remove.o)
                              /Applications/MCUXpressoIDE_11.7.0_9198/ide/plugins/com.nxp.mcuxpresso.tools.macosx_11.7.0.202209140929/tools/bin/../lib/gcc/arm-none-eabi/10.3.1/../../../../arm-none-eabi/lib/thumb/v7e-m+fp/hard/libcr_c.a(fclose.o) (remove)
/Applications/MCUXpressoIDE_11.7.0_9198/ide/plugins/com.nxp.mcuxpresso.tools.macosx_11.7.0.202209140929/tools/bin/../lib/gcc/arm-none-eabi/10.3.1/../../../../arm-none-eabi/lib/thumb/v7e-m+fp/hard/libcr_c.a(_cr_check_heap.o)
                              /Applications/MCUXpressoIDE_11.7.0_9198/ide/plugins/com.nxp.mcuxpresso.tools.macosx_11.7.0.202209140929/tools/bin/../lib/gcc/arm-none-eabi/10.3.1/../../../../arm-none-eabi/lib/thumb/v7e-m+fp/hard/libcr_c.a(_cr_sbrk.o) (__check_heap_overflow)
/Applications/MCUXpressoIDE_11.7.0_9198/ide/plugins/com.nxp.mcuxpresso.tools.macosx_11.7.0.202209140929/tools/bin/../lib/gcc/arm-none-eabi/10.3.1/../../../../arm-none-eabi/lib/thumb/v7e-m+fp/hard/libcr_c.a(_do_fflush.o)
                              /Applications/MCUXpressoIDE_11.7.0_9198/ide/plugins/com.nxp.mcuxpresso.tools.macosx_11.7.0.202209140929/tools/bin/../lib/gcc/arm-none-eabi/10.3.1/../../../../arm-none-eabi/lib/thumb/v7e-m+fp/hard/libcr_c.a(fflush.o) (_do_fflush)
/Applications/MCUXpressoIDE_11.7.0_9198/ide/plugins/com.nxp.mcuxpresso.tools.macosx_11.7.0.202209140929/tools/bin/../lib/gcc/arm-none-eabi/10.3.1/thumb/v7e-m+fp/hard/libcr_eabihelpers.a(division_64.o)
                              ./drivers/fsl_common_arm.o (__aeabi_uldivmod)
/Applications/MCUXpressoIDE_11.7.0_9198/ide/plugins/com.nxp.mcuxpresso.tools.macosx_11.7.0.202209140929/tools/bin/../lib/gcc/arm-none-eabi/10.3.1/thumb/v7e-m+fp/hard/libcr_eabihelpers.a(division_idiv0.o)
                              /Applications/MCUXpressoIDE_11.7.0_9198/ide/plugins/com.nxp.mcuxpresso.tools.macosx_11.7.0.202209140929/tools/bin/../lib/gcc/arm-none-eabi/10.3.1/thumb/v7e-m+fp/hard/libcr_eabihelpers.a(division_64.o) (__aeabi_idiv0)
/Applications/MCUXpressoIDE_11.7.0_9198/ide/plugins/com.nxp.mcuxpresso.tools.macosx_11.7.0.202209140929/tools/bin/../lib/gcc/arm-none-eabi/10.3.1/thumb/v7e-m+fp/hard/libcr_eabihelpers.a(double.o)
                              ./drivers/fsl_clock.o (__aeabi_dmul)
/Applications/MCUXpressoIDE_11.7.0_9198/ide/plugins/com.nxp.mcuxpresso.tools.macosx_11.7.0.202209140929/tools/bin/../lib/gcc/arm-none-eabi/10.3.1/thumb/v7e-m+fp/hard/libcr_eabihelpers.a(memcpy.o)
                              /Applications/MCUXpressoIDE_11.7.0_9198/ide/plugins/com.nxp.mcuxpresso.tools.macosx_11.7.0.202209140929/tools/bin/../lib/gcc/arm-none-eabi/10.3.1/../../../../arm-none-eabi/lib/thumb/v7e-m+fp/hard/libcr_c.a(memcpy.o) (__aeabi_memcpy)
/Applications/MCUXpressoIDE_11.7.0_9198/ide/plugins/com.nxp.mcuxpresso.tools.macosx_11.7.0.202209140929/tools/bin/../lib/gcc/arm-none-eabi/10.3.1/../../../../arm-none-eabi/lib/thumb/v7e-m+fp/hard/libcr_nohost_nf.a(__ciob.o)
                              /Applications/MCUXpressoIDE_11.7.0_9198/ide/plugins/com.nxp.mcuxpresso.tools.macosx_11.7.0.202209140929/tools/bin/../lib/gcc/arm-none-eabi/10.3.1/../../../../arm-none-eabi/lib/thumb/v7e-m+fp/hard/libcr_c.a(initio.o) (__Ciob)
/Applications/MCUXpressoIDE_11.7.0_9198/ide/plugins/com.nxp.mcuxpresso.tools.macosx_11.7.0.202209140929/tools/bin/../lib/gcc/arm-none-eabi/10.3.1/../../../../arm-none-eabi/lib/thumb/v7e-m+fp/hard/libcr_nohost_nf.a(__sys_appexit.o)
                              /Applications/MCUXpressoIDE_11.7.0_9198/ide/plugins/com.nxp.mcuxpresso.tools.macosx_11.7.0.202209140929/tools/bin/../lib/gcc/arm-none-eabi/10.3.1/../../../../arm-none-eabi/lib/thumb/v7e-m+fp/hard/libcr_c.a(alloc.o) (__sys_appexit)
/Applications/MCUXpressoIDE_11.7.0_9198/ide/plugins/com.nxp.mcuxpresso.tools.macosx_11.7.0.202209140929/tools/bin/../lib/gcc/arm-none-eabi/10.3.1/../../../../arm-none-eabi/lib/thumb/v7e-m+fp/hard/libcr_nohost_nf.a(__sys_close.o)
                              /Applications/MCUXpressoIDE_11.7.0_9198/ide/plugins/com.nxp.mcuxpresso.tools.macosx_11.7.0.202209140929/tools/bin/../lib/gcc/arm-none-eabi/10.3.1/../../../../arm-none-eabi/lib/thumb/v7e-m+fp/hard/libcr_c.a(fclose.o) (__sys_close)
/Applications/MCUXpressoIDE_11.7.0_9198/ide/plugins/com.nxp.mcuxpresso.tools.macosx_11.7.0.202209140929/tools/bin/../lib/gcc/arm-none-eabi/10.3.1/../../../../arm-none-eabi/lib/thumb/v7e-m+fp/hard/libcr_nohost_nf.a(__sys_flen.o)
                              /Applications/MCUXpressoIDE_11.7.0_9198/ide/plugins/com.nxp.mcuxpresso.tools.macosx_11.7.0.202209140929/tools/bin/../lib/gcc/arm-none-eabi/10.3.1/../../../../arm-none-eabi/lib/thumb/v7e-m+fp/hard/libcr_c.a(_writebuf.o) (__sys_flen)
/Applications/MCUXpressoIDE_11.7.0_9198/ide/plugins/com.nxp.mcuxpresso.tools.macosx_11.7.0.202209140929/tools/bin/../lib/gcc/arm-none-eabi/10.3.1/../../../../arm-none-eabi/lib/thumb/v7e-m+fp/hard/libcr_nohost_nf.a(__sys_istty.o)
                              /Applications/MCUXpressoIDE_11.7.0_9198/ide/plugins/com.nxp.mcuxpresso.tools.macosx_11.7.0.202209140929/tools/bin/../lib/gcc/arm-none-eabi/10.3.1/../../../../arm-none-eabi/lib/thumb/v7e-m+fp/hard/libcr_c.a(_deferredlazyseek.o) (__sys_istty)
/Applications/MCUXpressoIDE_11.7.0_9198/ide/plugins/com.nxp.mcuxpresso.tools.macosx_11.7.0.202209140929/tools/bin/../lib/gcc/arm-none-eabi/10.3.1/../../../../arm-none-eabi/lib/thumb/v7e-m+fp/hard/libcr_nohost_nf.a(__sys_read.o)
                              /Applications/MCUXpressoIDE_11.7.0_9198/ide/plugins/com.nxp.mcuxpresso.tools.macosx_11.7.0.202209140929/tools/bin/../lib/gcc/arm-none-eabi/10.3.1/../../../../arm-none-eabi/lib/thumb/v7e-m+fp/hard/libcr_c.a(__fillbuf.o) (__sys_read)
/Applications/MCUXpressoIDE_11.7.0_9198/ide/plugins/com.nxp.mcuxpresso.tools.macosx_11.7.0.202209140929/tools/bin/../lib/gcc/arm-none-eabi/10.3.1/../../../../arm-none-eabi/lib/thumb/v7e-m+fp/hard/libcr_nohost_nf.a(__sys_readc.o)
                              /Applications/MCUXpressoIDE_11.7.0_9198/ide/plugins/com.nxp.mcuxpresso.tools.macosx_11.7.0.202209140929/tools/bin/../lib/gcc/arm-none-eabi/10.3.1/../../../../arm-none-eabi/lib/thumb/v7e-m+fp/hard/libcr_c.a(__fillbuf.o) (__sys_readc)
/Applications/MCUXpressoIDE_11.7.0_9198/ide/plugins/com.nxp.mcuxpresso.tools.macosx_11.7.0.202209140929/tools/bin/../lib/gcc/arm-none-eabi/10.3.1/../../../../arm-none-eabi/lib/thumb/v7e-m+fp/hard/libcr_nohost_nf.a(__sys_remove.o)
                              /Applications/MCUXpressoIDE_11.7.0_9198/ide/plugins/com.nxp.mcuxpresso.tools.macosx_11.7.0.202209140929/tools/bin/../lib/gcc/arm-none-eabi/10.3.1/../../../../arm-none-eabi/lib/thumb/v7e-m+fp/hard/libcr_c.a(remove.o) (__sys_remove)
/Applications/MCUXpressoIDE_11.7.0_9198/ide/plugins/com.nxp.mcuxpresso.tools.macosx_11.7.0.202209140929/tools/bin/../lib/gcc/arm-none-eabi/10.3.1/../../../../arm-none-eabi/lib/thumb/v7e-m+fp/hard/libcr_nohost_nf.a(__sys_rename.o)
                              /Applications/MCUXpressoIDE_11.7.0_9198/ide/plugins/com.nxp.mcuxpresso.tools.macosx_11.7.0.202209140929/tools/bin/../lib/gcc/arm-none-eabi/10.3.1/../../../../arm-none-eabi/lib/thumb/v7e-m+fp/hard/libcr_c.a(remove.o) (__sys_rename)
/Applications/MCUXpressoIDE_11.7.0_9198/ide/plugins/com.nxp.mcuxpresso.tools.macosx_11.7.0.202209140929/tools/bin/../lib/gcc/arm-none-eabi/10.3.1/../../../../arm-none-eabi/lib/thumb/v7e-m+fp/hard/libcr_nohost_nf.a(__sys_seek.o)
                              /Applications/MCUXpressoIDE_11.7.0_9198/ide/plugins/com.nxp.mcuxpresso.tools.macosx_11.7.0.202209140929/tools/bin/../lib/gcc/arm-none-eabi/10.3.1/../../../../arm-none-eabi/lib/thumb/v7e-m+fp/hard/libcr_c.a(__fillbuf.o) (__sys_seek)
/Applications/MCUXpressoIDE_11.7.0_9198/ide/plugins/com.nxp.mcuxpresso.tools.macosx_11.7.0.202209140929/tools/bin/../lib/gcc/arm-none-eabi/10.3.1/../../../../arm-none-eabi/lib/thumb/v7e-m+fp/hard/libcr_nohost_nf.a(__sys_tmpnam.o)
                              /Applications/MCUXpressoIDE_11.7.0_9198/ide/plugins/com.nxp.mcuxpresso.tools.macosx_11.7.0.202209140929/tools/bin/../lib/gcc/arm-none-eabi/10.3.1/../../../../arm-none-eabi/lib/thumb/v7e-m+fp/hard/libcr_c.a(fclose.o) (__sys_tmpnam)
/Applications/MCUXpressoIDE_11.7.0_9198/ide/plugins/com.nxp.mcuxpresso.tools.macosx_11.7.0.202209140929/tools/bin/../lib/gcc/arm-none-eabi/10.3.1/../../../../arm-none-eabi/lib/thumb/v7e-m+fp/hard/libcr_nohost_nf.a(__sys_write.o)
                              /Applications/MCUXpressoIDE_11.7.0_9198/ide/plugins/com.nxp.mcuxpresso.tools.macosx_11.7.0.202209140929/tools/bin/../lib/gcc/arm-none-eabi/10.3.1/../../../../arm-none-eabi/lib/thumb/v7e-m+fp/hard/libcr_c.a(alloc.o) (__sys_write)

Discarded input sections

 .text          0x0000000000000000        0x0 ./xip/evkmimxrt1170_flexspi_nor_config.o
 .data          0x0000000000000000        0x0 ./xip/evkmimxrt1170_flexspi_nor_config.o
 .bss           0x0000000000000000        0x0 ./xip/evkmimxrt1170_flexspi_nor_config.o
 .boot_hdr.conf
                0x0000000000000000      0x200 ./xip/evkmimxrt1170_flexspi_nor_config.o
 .debug_info    0x0000000000000000      0x8ca ./xip/evkmimxrt1170_flexspi_nor_config.o
 .debug_abbrev  0x0000000000000000      0x12d ./xip/evkmimxrt1170_flexspi_nor_config.o
 .debug_aranges
                0x0000000000000000       0x18 ./xip/evkmimxrt1170_flexspi_nor_config.o
 .debug_line    0x0000000000000000      0x154 ./xip/evkmimxrt1170_flexspi_nor_config.o
 .debug_str     0x0000000000000000      0xa57 ./xip/evkmimxrt1170_flexspi_nor_config.o
 .comment       0x0000000000000000       0x4a ./xip/evkmimxrt1170_flexspi_nor_config.o
 .ARM.attributes
                0x0000000000000000       0x34 ./xip/evkmimxrt1170_flexspi_nor_config.o
 .text          0x0000000000000000        0x0 ./xip/fsl_flexspi_nor_boot.o
 .data          0x0000000000000000        0x0 ./xip/fsl_flexspi_nor_boot.o
 .bss           0x0000000000000000        0x0 ./xip/fsl_flexspi_nor_boot.o
 .boot_hdr.boot_data
                0x0000000000000000       0x10 ./xip/fsl_flexspi_nor_boot.o
 .boot_hdr.ivt  0x0000000000000000       0x20 ./xip/fsl_flexspi_nor_boot.o
 .debug_info    0x0000000000000000      0x546 ./xip/fsl_flexspi_nor_boot.o
 .debug_abbrev  0x0000000000000000      0x108 ./xip/fsl_flexspi_nor_boot.o
 .debug_aranges
                0x0000000000000000       0x18 ./xip/fsl_flexspi_nor_boot.o
 .debug_line    0x0000000000000000      0x13c ./xip/fsl_flexspi_nor_boot.o
 .debug_str     0x0000000000000000      0x4ee ./xip/fsl_flexspi_nor_boot.o
 .comment       0x0000000000000000       0x4a ./xip/fsl_flexspi_nor_boot.o
 .ARM.attributes
                0x0000000000000000       0x34 ./xip/fsl_flexspi_nor_boot.o
 .text          0x0000000000000000        0x0 ./utilities/fsl_assert.o
 .data          0x0000000000000000        0x0 ./utilities/fsl_assert.o
 .bss           0x0000000000000000        0x0 ./utilities/fsl_assert.o
 .debug_info    0x0000000000000000      0x3ed ./utilities/fsl_assert.o
 .debug_abbrev  0x0000000000000000       0x7d ./utilities/fsl_assert.o
 .debug_aranges
                0x0000000000000000       0x18 ./utilities/fsl_assert.o
 .debug_line    0x0000000000000000       0x78 ./utilities/fsl_assert.o
 .debug_str     0x0000000000000000      0x400 ./utilities/fsl_assert.o
 .comment       0x0000000000000000       0x4a ./utilities/fsl_assert.o
 .ARM.attributes
                0x0000000000000000       0x34 ./utilities/fsl_assert.o
 .text          0x0000000000000000        0x0 ./utilities/fsl_debug_console.o
 .data          0x0000000000000000        0x0 ./utilities/fsl_debug_console.o
 .bss           0x0000000000000000        0x0 ./utilities/fsl_debug_console.o
 .text.DbgConsole_ReadOneCharacter
                0x0000000000000000       0x20 ./utilities/fsl_debug_console.o
 .text.DbgConsole_SendData
                0x0000000000000000       0x20 ./utilities/fsl_debug_console.o
 .text.DbgConsole_ReadLine
                0x0000000000000000       0x50 ./utilities/fsl_debug_console.o
 .text.DbgConsole_ReadCharacter
                0x0000000000000000       0x1c ./utilities/fsl_debug_console.o
 .text.DbgConsole_EnterLowpower
                0x0000000000000000       0x18 ./utilities/fsl_debug_console.o
 .text.DbgConsole_ExitLowpower
                0x0000000000000000       0x18 ./utilities/fsl_debug_console.o
 .text.DbgConsole_Deinit
                0x0000000000000000       0x40 ./utilities/fsl_debug_console.o
 .text.DbgConsole_Flush
                0x0000000000000000        0x4 ./utilities/fsl_debug_console.o
 .text.DbgConsole_Putchar
                0x0000000000000000       0x12 ./utilities/fsl_debug_console.o
 .text.DbgConsole_Scanf
                0x0000000000000000       0x36 ./utilities/fsl_debug_console.o
 .text.DbgConsole_BlockingVprintf
                0x0000000000000000       0x4c ./utilities/fsl_debug_console.o
 .text.DbgConsole_BlockingPrintf
                0x0000000000000000       0x1a ./utilities/fsl_debug_console.o
 .text.DbgConsole_Getchar
                0x0000000000000000       0x22 ./utilities/fsl_debug_console.o
 .text          0x0000000000000000        0x0 ./utilities/fsl_str.o
 .data          0x0000000000000000        0x0 ./utilities/fsl_str.o
 .bss           0x0000000000000000        0x0 ./utilities/fsl_str.o
 .text.ScanIsWhiteSpace
                0x0000000000000000       0x14 ./utilities/fsl_str.o
 .text.ScanIgnoreWhiteSpace
                0x0000000000000000       0x22 ./utilities/fsl_str.o
 .text.StrFormatScanf
                0x0000000000000000      0x224 ./utilities/fsl_str.o
 .text          0x0000000000000000        0x0 ./startup/boot_multicore_slave.o
 .data          0x0000000000000000        0x0 ./startup/boot_multicore_slave.o
 .bss           0x0000000000000000        0x0 ./startup/boot_multicore_slave.o
 .debug_line    0x0000000000000000        0x0 ./startup/boot_multicore_slave.o
 .debug_str     0x0000000000000000      0x141 ./startup/boot_multicore_slave.o
 .comment       0x0000000000000000       0x4a ./startup/boot_multicore_slave.o
 .ARM.attributes
                0x0000000000000000       0x34 ./startup/boot_multicore_slave.o
 .text          0x0000000000000000        0x0 ./startup/startup_mimxrt1176_cm7.o
 .data          0x0000000000000000        0x0 ./startup/startup_mimxrt1176_cm7.o
 .bss           0x0000000000000000        0x0 ./startup/startup_mimxrt1176_cm7.o
 .text          0x0000000000000000        0x0 ./source/MIMXRT1176_Project.o
 .data          0x0000000000000000        0x0 ./source/MIMXRT1176_Project.o
 .bss           0x0000000000000000        0x0 ./source/MIMXRT1176_Project.o
 .text          0x0000000000000000        0x0 ./source/semihost_hardfault.o
 .data          0x0000000000000000        0x0 ./source/semihost_hardfault.o
 .bss           0x0000000000000000        0x0 ./source/semihost_hardfault.o
 .text          0x0000000000000000        0x0 ./drivers/fsl_anatop_ai.o
 .data          0x0000000000000000        0x0 ./drivers/fsl_anatop_ai.o
 .bss           0x0000000000000000        0x0 ./drivers/fsl_anatop_ai.o
 .text          0x0000000000000000        0x0 ./drivers/fsl_clock.o
 .data          0x0000000000000000        0x0 ./drivers/fsl_clock.o
 .bss           0x0000000000000000        0x0 ./drivers/fsl_clock.o
 .text.CLOCK_ControlGate.constprop.0
                0x0000000000000000       0x28 ./drivers/fsl_clock.o
 .text.CLOCK_DeinitArmPll
                0x0000000000000000       0x1c ./drivers/fsl_clock.o
 .text.CLOCK_CalcPllSpreadSpectrum
                0x0000000000000000       0x1c ./drivers/fsl_clock.o
 .text.CLOCK_DeinitSysPll2
                0x0000000000000000       0x3c ./drivers/fsl_clock.o
 .text.CLOCK_IsSysPll2PfdEnabled
                0x0000000000000000       0x1c ./drivers/fsl_clock.o
 .text.CLOCK_DeinitPfd
                0x0000000000000000       0x2c ./drivers/fsl_clock.o
 .text.CLOCK_DeinitSysPll3
                0x0000000000000000       0x30 ./drivers/fsl_clock.o
 .text.CLOCK_IsSysPll3PfdEnabled
                0x0000000000000000       0x1c ./drivers/fsl_clock.o
 .text.CLOCK_InitAudioPll
                0x0000000000000000       0xb8 ./drivers/fsl_clock.o
 .text.CLOCK_GPC_SetAudioPllOutputFreq
                0x0000000000000000       0x44 ./drivers/fsl_clock.o
 .text.CLOCK_CalcArmPllFreq
                0x0000000000000000       0x52 ./drivers/fsl_clock.o
 .text.CLOCK_InitArmPllWithFreq
                0x0000000000000000       0x1e ./drivers/fsl_clock.o
 .text.CLOCK_CalcAvPllFreq
                0x0000000000000000       0xd8 ./drivers/fsl_clock.o
 .text.CLOCK_InitAudioPllWithFreq
                0x0000000000000000       0x4c ./drivers/fsl_clock.o
 .text.CLOCK_InitVideoPllWithFreq
                0x0000000000000000       0x4c ./drivers/fsl_clock.o
 .text.CLOCK_DeinitVideoPll
                0x0000000000000000       0x4c ./drivers/fsl_clock.o
 .text.CLOCK_GPC_SetVideoPllOutputFreq
                0x0000000000000000       0x44 ./drivers/fsl_clock.o
 .text.CLOCK_InitSysPll1
                0x0000000000000000       0xb4 ./drivers/fsl_clock.o
 .text.CLOCK_GPC_SetSysPll1OutputFreq
                0x0000000000000000       0x44 ./drivers/fsl_clock.o
 .text.CLOCK_OSC_EnableOsc24M
                0x0000000000000000       0x1c ./drivers/fsl_clock.o
 .text.CLOCK_OSC_SetOsc24MWorkMode
                0x0000000000000000       0x18 ./drivers/fsl_clock.o
 .text.CLOCK_OSC_SetOsc16MConfig
                0x0000000000000000       0x28 ./drivers/fsl_clock.o
 .text.CLOCK_OSC_SetOscRc400MRefClkDiv
                0x0000000000000000       0x26 ./drivers/fsl_clock.o
 .text.CLOCK_OSC_SetOscRc400MFastClkCount
                0x0000000000000000       0x1e ./drivers/fsl_clock.o
 .text.CLOCK_OSC_SetOscRc400MHysteresisValue
                0x0000000000000000       0x30 ./drivers/fsl_clock.o
 .text.CLOCK_OSC_BypassOscRc400MTuneLogic
                0x0000000000000000       0x12 ./drivers/fsl_clock.o
 .text.CLOCK_OSC_EnableOscRc400MTuneLogic
                0x0000000000000000       0x12 ./drivers/fsl_clock.o
 .text.CLOCK_OSC_FreezeOscRc400MTuneValue
                0x0000000000000000       0x12 ./drivers/fsl_clock.o
 .text.CLOCK_OSC_SetOscRc400MTuneValue
                0x0000000000000000       0x20 ./drivers/fsl_clock.o
 .text.CLOCK_OSC_SetLocked1MHzCount
                0x0000000000000000       0x36 ./drivers/fsl_clock.o
 .text.CLOCK_OSC_CheckLocked1MHzErrorFlag
                0x0000000000000000       0x10 ./drivers/fsl_clock.o
 .text.CLOCK_OSC_ClearLocked1MHzErrorFlag
                0x0000000000000000        0xa ./drivers/fsl_clock.o
 .text.CLOCK_OSC_GetCurrentOscRc400MFastClockCount
                0x0000000000000000        0xe ./drivers/fsl_clock.o
 .text.CLOCK_OSC_GetCurrentOscRc400MTuneValue
                0x0000000000000000        0xe ./drivers/fsl_clock.o
 .text.CLOCK_GetPllFreq
                0x0000000000000000       0x38 ./drivers/fsl_clock.o
 .text.CLOCK_SetGroupConfig
                0x0000000000000000       0x28 ./drivers/fsl_clock.o
 .text.CLOCK_OSC_TrimOscRc400M
                0x0000000000000000       0x40 ./drivers/fsl_clock.o
 .text.CLOCK_GetFreqFromObs
                0x0000000000000000       0x4c ./drivers/fsl_clock.o
 .text.CLOCK_EnableUsbhs0Clock
                0x0000000000000000        0x4 ./drivers/fsl_clock.o
 .text.CLOCK_EnableUsbhs0PhyPllClock
                0x0000000000000000       0xbc ./drivers/fsl_clock.o
 .text.CLOCK_DisableUsbhs0PhyPllClock
                0x0000000000000000       0x18 ./drivers/fsl_clock.o
 .text.CLOCK_EnableUsbhs1Clock
                0x0000000000000000        0x4 ./drivers/fsl_clock.o
 .text.CLOCK_EnableUsbhs1PhyPllClock
                0x0000000000000000       0xbc ./drivers/fsl_clock.o
 .text.CLOCK_DisableUsbhs1PhyPllClock
                0x0000000000000000       0x18 ./drivers/fsl_clock.o
 .text.CLOCK_OSCPLL_ControlBySetPointMode
                0x0000000000000000       0x2c ./drivers/fsl_clock.o
 .text.CLOCK_OSCPLL_ControlByCpuLowPowerMode
                0x0000000000000000       0x6c ./drivers/fsl_clock.o
 .text.CLOCK_ROOT_ControlBySetPointMode
                0x0000000000000000       0x5c ./drivers/fsl_clock.o
 .text.CLOCK_LPCG_ControlBySetPointMode
                0x0000000000000000       0x2c ./drivers/fsl_clock.o
 .text.CLOCK_LPCG_ControlByCpuLowPowerMode
                0x0000000000000000       0x6c ./drivers/fsl_clock.o
 .text          0x0000000000000000        0x0 ./drivers/fsl_common.o
 .data          0x0000000000000000        0x0 ./drivers/fsl_common.o
 .bss           0x0000000000000000        0x0 ./drivers/fsl_common.o
 .text.SDK_Malloc
                0x0000000000000000       0x42 ./drivers/fsl_common.o
 .text.SDK_Free
                0x0000000000000000       0x18 ./drivers/fsl_common.o
 .debug_info    0x0000000000000000      0x5c4 ./drivers/fsl_common.o
 .debug_abbrev  0x0000000000000000      0x19f ./drivers/fsl_common.o
 .debug_loc     0x0000000000000000      0x1f2 ./drivers/fsl_common.o
 .debug_aranges
                0x0000000000000000       0x28 ./drivers/fsl_common.o
 .debug_ranges  0x0000000000000000       0x18 ./drivers/fsl_common.o
 .debug_line    0x0000000000000000      0x222 ./drivers/fsl_common.o
 .debug_str     0x0000000000000000      0x4d4 ./drivers/fsl_common.o
 .comment       0x0000000000000000       0x4a ./drivers/fsl_common.o
 .debug_frame   0x0000000000000000       0x3c ./drivers/fsl_common.o
 .ARM.attributes
                0x0000000000000000       0x34 ./drivers/fsl_common.o
 .text          0x0000000000000000        0x0 ./drivers/fsl_common_arm.o
 .data          0x0000000000000000        0x0 ./drivers/fsl_common_arm.o
 .bss           0x0000000000000000        0x0 ./drivers/fsl_common_arm.o
 .text.MSDK_EnableCpuCycleCounter
                0x0000000000000000       0x30 ./drivers/fsl_common_arm.o
 .text.MSDK_GetCpuCycleCount
                0x0000000000000000        0xc ./drivers/fsl_common_arm.o
 .text          0x0000000000000000        0x0 ./drivers/fsl_dcdc.o
 .data          0x0000000000000000        0x0 ./drivers/fsl_dcdc.o
 .bss           0x0000000000000000        0x0 ./drivers/fsl_dcdc.o
 .text.DCDC_ConvertByteArrayToWord
                0x0000000000000000       0x18 ./drivers/fsl_dcdc.o
 .text.CLOCK_ControlGate.constprop.0
                0x0000000000000000       0x30 ./drivers/fsl_dcdc.o
 .text.DCDC_Init
                0x0000000000000000       0x36 ./drivers/fsl_dcdc.o
 .text.DCDC_Deinit
                0x0000000000000000       0x10 ./drivers/fsl_dcdc.o
 .text.DCDC_GetDefaultConfig
                0x0000000000000000       0x18 ./drivers/fsl_dcdc.o
 .text.DCDC_GetDefaultDetectionConfig
                0x0000000000000000       0x22 ./drivers/fsl_dcdc.o
 .text.DCDC_SetDetectionConfig
                0x0000000000000000       0x50 ./drivers/fsl_dcdc.o
 .text.DCDC_SetClockSource
                0x0000000000000000       0x28 ./drivers/fsl_dcdc.o
 .text.DCDC_GetDefaultLowPowerConfig
                0x0000000000000000       0x12 ./drivers/fsl_dcdc.o
 .text.DCDC_SetLowPowerConfig
                0x0000000000000000       0x12 ./drivers/fsl_dcdc.o
 .text.DCDC_GetDefaultLoopControlConfig
                0x0000000000000000       0x1e ./drivers/fsl_dcdc.o
 .text.DCDC_SetLoopControlConfig
                0x0000000000000000       0x6e ./drivers/fsl_dcdc.o
 .text.DCDC_SetMinPowerConfig
                0x0000000000000000       0x12 ./drivers/fsl_dcdc.o
 .text.DCDC_SetInternalRegulatorConfig
                0x0000000000000000       0x14 ./drivers/fsl_dcdc.o
 .text.DCDC_SetPointInit
                0x0000000000000000       0xb4 ./drivers/fsl_dcdc.o
 .text.DCDC_BootIntoCCM
                0x0000000000000000       0x1e ./drivers/fsl_dcdc.o
 .text          0x0000000000000000        0x0 ./drivers/fsl_gpio.o
 .data          0x0000000000000000        0x0 ./drivers/fsl_gpio.o
 .bss           0x0000000000000000        0x0 ./drivers/fsl_gpio.o
 .text.GPIO_PinWrite
                0x0000000000000000       0x14 ./drivers/fsl_gpio.o
 .text.GPIO_PinSetInterruptConfig
                0x0000000000000000       0x7c ./drivers/fsl_gpio.o
 .text.GPIO_PinInit
                0x0000000000000000       0x88 ./drivers/fsl_gpio.o
 .rodata.s_gpioBases
                0x0000000000000000       0x40 ./drivers/fsl_gpio.o
 .rodata.s_gpioClock
                0x0000000000000000        0xe ./drivers/fsl_gpio.o
 .debug_info    0x0000000000000000     0x1472 ./drivers/fsl_gpio.o
 .debug_abbrev  0x0000000000000000      0x2d6 ./drivers/fsl_gpio.o
 .debug_loc     0x0000000000000000      0x409 ./drivers/fsl_gpio.o
 .debug_aranges
                0x0000000000000000       0x30 ./drivers/fsl_gpio.o
 .debug_ranges  0x0000000000000000       0x78 ./drivers/fsl_gpio.o
 .debug_line    0x0000000000000000      0x3ba ./drivers/fsl_gpio.o
 .debug_str     0x0000000000000000     0x1355 ./drivers/fsl_gpio.o
 .comment       0x0000000000000000       0x4a ./drivers/fsl_gpio.o
 .debug_frame   0x0000000000000000       0x60 ./drivers/fsl_gpio.o
 .ARM.attributes
                0x0000000000000000       0x34 ./drivers/fsl_gpio.o
 .text          0x0000000000000000        0x0 ./drivers/fsl_lpuart.o
 .data          0x0000000000000000        0x0 ./drivers/fsl_lpuart.o
 .bss           0x0000000000000000        0x0 ./drivers/fsl_lpuart.o
 .text.LPUART_ReadNonBlocking
                0x0000000000000000       0x2c ./drivers/fsl_lpuart.o
 .text.LPUART_TransferGetRxRingBufferLength
                0x0000000000000000       0x14 ./drivers/fsl_lpuart.o
 .text.LPUART_Deinit
                0x0000000000000000       0x38 ./drivers/fsl_lpuart.o
 .text.LPUART_SetBaudRate
                0x0000000000000000       0x9e ./drivers/fsl_lpuart.o
 .text.LPUART_Enable9bitMode
                0x0000000000000000       0x26 ./drivers/fsl_lpuart.o
 .text.LPUART_SendAddress
                0x0000000000000000       0x14 ./drivers/fsl_lpuart.o
 .text.LPUART_EnableInterrupts
                0x0000000000000000       0x32 ./drivers/fsl_lpuart.o
 .text.LPUART_DisableInterrupts
                0x0000000000000000       0x38 ./drivers/fsl_lpuart.o
 .text.LPUART_GetEnabledInterrupts
                0x0000000000000000       0x2c ./drivers/fsl_lpuart.o
 .text.LPUART_GetStatusFlags
                0x0000000000000000       0x18 ./drivers/fsl_lpuart.o
 .text.LPUART_TransferHandleIRQ
                0x0000000000000000      0x2a8 ./drivers/fsl_lpuart.o
 .text.LPUART_ClearStatusFlags
                0x0000000000000000       0x3c ./drivers/fsl_lpuart.o
 .text.LPUART_ReadBlocking
                0x0000000000000000       0xc4 ./drivers/fsl_lpuart.o
 .text.LPUART_TransferCreateHandle
                0x0000000000000000       0x88 ./drivers/fsl_lpuart.o
 .text.LPUART_TransferStartRingBuffer
                0x0000000000000000       0x1e ./drivers/fsl_lpuart.o
 .text.LPUART_TransferStopRingBuffer
                0x0000000000000000       0x26 ./drivers/fsl_lpuart.o
 .text.LPUART_TransferSendNonBlocking
                0x0000000000000000       0x34 ./drivers/fsl_lpuart.o
 .text.LPUART_TransferAbortSend
                0x0000000000000000       0x1c ./drivers/fsl_lpuart.o
 .text.LPUART_TransferGetSendCount
                0x0000000000000000       0x20 ./drivers/fsl_lpuart.o
 .text.LPUART_TransferReceiveNonBlocking
                0x0000000000000000       0xe8 ./drivers/fsl_lpuart.o
 .text.LPUART_TransferAbortReceive
                0x0000000000000000       0x22 ./drivers/fsl_lpuart.o
 .text.LPUART_TransferGetReceiveCount
                0x0000000000000000       0x18 ./drivers/fsl_lpuart.o
 .text.LPUART_TransferHandleErrorIRQ
                0x0000000000000000        0x2 ./drivers/fsl_lpuart.o
 .rodata.s_lpuartIRQ
                0x0000000000000000       0x1a ./drivers/fsl_lpuart.o
 .text          0x0000000000000000        0x0 ./drivers/fsl_pmu.o
 .data          0x0000000000000000        0x0 ./drivers/fsl_pmu.o
 .bss           0x0000000000000000        0x0 ./drivers/fsl_pmu.o
 .text.PMU_SetPllLdoControlMode
                0x0000000000000000       0x16 ./drivers/fsl_pmu.o
 .text.PMU_SwitchPllLdoToGPCMode
                0x0000000000000000       0x1c ./drivers/fsl_pmu.o
 .text.PMU_StaticDisablePllLdo
                0x0000000000000000        0xa ./drivers/fsl_pmu.o
 .text.PMU_SetLpsrAnaLdoControlMode
                0x0000000000000000       0x16 ./drivers/fsl_pmu.o
 .text.PMU_StaticGetLpsrAnaLdoDefaultConfig
                0x0000000000000000       0x1c ./drivers/fsl_pmu.o
 .text.PMU_StaticLpsrAnaLdoInit
                0x0000000000000000       0x40 ./drivers/fsl_pmu.o
 .text.PMU_StaticLpsrAnaLdoDeinit
                0x0000000000000000        0xe ./drivers/fsl_pmu.o
 .text.PMU_SetLpsrDigLdoControlMode
                0x0000000000000000       0x16 ./drivers/fsl_pmu.o
 .text.PMU_StaticGetLpsrDigLdoDefaultConfig
                0x0000000000000000       0x16 ./drivers/fsl_pmu.o
 .text.PMU_StaticLpsrDigLdoInit
                0x0000000000000000       0x58 ./drivers/fsl_pmu.o
 .text.PMU_StaticLpsrDigLdoDeinit
                0x0000000000000000       0x20 ./drivers/fsl_pmu.o
 .text.PMU_GPCSetLpsrDigLdoTargetVoltage
                0x0000000000000000       0x58 ./drivers/fsl_pmu.o
 .text.PMU_GetSnvsDigLdoDefaultConfig
                0x0000000000000000       0x1e ./drivers/fsl_pmu.o
 .text.PMU_SnvsDigLdoInit
                0x0000000000000000       0x18 ./drivers/fsl_pmu.o
 .text.PMU_GPCEnableLdo
                0x0000000000000000       0x28 ./drivers/fsl_pmu.o
 .text.PMU_GPCSetLdoOperateMode
                0x0000000000000000       0x38 ./drivers/fsl_pmu.o
 .text.PMU_GPCEnableLdoTrackingMode
                0x0000000000000000       0x28 ./drivers/fsl_pmu.o
 .text.PMU_GPCEnableLdoBypassMode
                0x0000000000000000       0x28 ./drivers/fsl_pmu.o
 .text.PMU_GPCEnableLdoStandbyMode
                0x0000000000000000       0x28 ./drivers/fsl_pmu.o
 .text.PMU_SetBandgapControlMode
                0x0000000000000000       0x16 ./drivers/fsl_pmu.o
 .text.PMU_SwitchBandgapToGPCMode
                0x0000000000000000       0x1c ./drivers/fsl_pmu.o
 .text.PMU_DisableBandgapSelfBiasAfterPowerUp
                0x0000000000000000       0x26 ./drivers/fsl_pmu.o
 .text.PMU_EnableBandgapSelfBiasBeforePowerDown
                0x0000000000000000       0x1a ./drivers/fsl_pmu.o
 .text.PMU_StaticBandgapInit
                0x0000000000000000       0x40 ./drivers/fsl_pmu.o
 .text.PMU_WellBiasInit
                0x0000000000000000       0x30 ./drivers/fsl_pmu.o
 .text.PMU_GetWellBiasDefaultConfig
                0x0000000000000000       0x14 ./drivers/fsl_pmu.o
 .text.PMU_SetBodyBiasControlMode
                0x0000000000000000       0x40 ./drivers/fsl_pmu.o
 .text.PMU_GPCEnableBodyBias
                0x0000000000000000       0x28 ./drivers/fsl_pmu.o
 .text.PMU_GPCEnableBodyBiasStandbyMode
                0x0000000000000000       0x24 ./drivers/fsl_pmu.o
 .text.PMU_GPCGetBodyBiasDefaultConfig
                0x0000000000000000       0x10 ./drivers/fsl_pmu.o
 .text.PMU_GPCSetBodyBiasConfig
                0x0000000000000000       0x50 ./drivers/fsl_pmu.o
 .rodata        0x0000000000000000       0x84 ./drivers/fsl_pmu.o
 .text          0x0000000000000000        0x0 ./device/system_MIMXRT1176_cm7.o
 .data          0x0000000000000000        0x0 ./device/system_MIMXRT1176_cm7.o
 .bss           0x0000000000000000        0x0 ./device/system_MIMXRT1176_cm7.o
 .text.SystemCoreClockUpdate
                0x0000000000000000        0x2 ./device/system_MIMXRT1176_cm7.o
 .text          0x0000000000000000        0x0 ./component/uart/fsl_adapter_lpuart.o
 .data          0x0000000000000000        0x0 ./component/uart/fsl_adapter_lpuart.o
 .bss           0x0000000000000000        0x0 ./component/uart/fsl_adapter_lpuart.o
 .text.HAL_UartDeinit
                0x0000000000000000       0x18 ./component/uart/fsl_adapter_lpuart.o
 .text.HAL_UartReceiveBlocking
                0x0000000000000000       0x20 ./component/uart/fsl_adapter_lpuart.o
 .text.HAL_UartEnterLowpower
                0x0000000000000000        0x4 ./component/uart/fsl_adapter_lpuart.o
 .text.HAL_UartExitLowpower
                0x0000000000000000        0x4 ./component/uart/fsl_adapter_lpuart.o
 .text          0x0000000000000000        0x0 ./component/serial_manager/fsl_component_serial_manager.o
 .data          0x0000000000000000        0x0 ./component/serial_manager/fsl_component_serial_manager.o
 .bss           0x0000000000000000        0x0 ./component/serial_manager/fsl_component_serial_manager.o
 .text.SerialManager_Deinit
                0x0000000000000000       0x2a ./component/serial_manager/fsl_component_serial_manager.o
 .text.SerialManager_CloseWriteHandle
                0x0000000000000000       0x24 ./component/serial_manager/fsl_component_serial_manager.o
 .text.SerialManager_CloseReadHandle
                0x0000000000000000       0x1e ./component/serial_manager/fsl_component_serial_manager.o
 .text.SerialManager_ReadBlocking
                0x0000000000000000       0x14 ./component/serial_manager/fsl_component_serial_manager.o
 .text.SerialManager_EnterLowpower
                0x0000000000000000       0x12 ./component/serial_manager/fsl_component_serial_manager.o
 .text.SerialManager_ExitLowpower
                0x0000000000000000       0x12 ./component/serial_manager/fsl_component_serial_manager.o
 .text.SerialManager_SetLowpowerCriticalCb
                0x0000000000000000        0x2 ./component/serial_manager/fsl_component_serial_manager.o
 .text          0x0000000000000000        0x0 ./component/serial_manager/fsl_component_serial_port_uart.o
 .data          0x0000000000000000        0x0 ./component/serial_manager/fsl_component_serial_port_uart.o
 .bss           0x0000000000000000        0x0 ./component/serial_manager/fsl_component_serial_port_uart.o
 .text.Serial_UartDeinit
                0x0000000000000000        0xa ./component/serial_manager/fsl_component_serial_port_uart.o
 .text.Serial_UartRead
                0x0000000000000000        0x4 ./component/serial_manager/fsl_component_serial_port_uart.o
 .text.Serial_UartEnterLowpower
                0x0000000000000000        0xa ./component/serial_manager/fsl_component_serial_port_uart.o
 .text.Serial_UartExitLowpower
                0x0000000000000000        0xa ./component/serial_manager/fsl_component_serial_port_uart.o
 .text          0x0000000000000000        0x0 ./component/lists/fsl_component_generic_list.o
 .data          0x0000000000000000        0x0 ./component/lists/fsl_component_generic_list.o
 .bss           0x0000000000000000        0x0 ./component/lists/fsl_component_generic_list.o
 .text.LIST_Init
                0x0000000000000000        0xc ./component/lists/fsl_component_generic_list.o
 .text.LIST_GetList
                0x0000000000000000        0x4 ./component/lists/fsl_component_generic_list.o
 .text.LIST_AddTail
                0x0000000000000000       0x36 ./component/lists/fsl_component_generic_list.o
 .text.LIST_AddHead
                0x0000000000000000       0x30 ./component/lists/fsl_component_generic_list.o
 .text.LIST_RemoveHead
                0x0000000000000000       0x2a ./component/lists/fsl_component_generic_list.o
 .text.LIST_GetHead
                0x0000000000000000        0x4 ./component/lists/fsl_component_generic_list.o
 .text.LIST_GetNext
                0x0000000000000000        0x4 ./component/lists/fsl_component_generic_list.o
 .text.LIST_GetPrev
                0x0000000000000000        0x4 ./component/lists/fsl_component_generic_list.o
 .text.LIST_RemoveElement
                0x0000000000000000       0x40 ./component/lists/fsl_component_generic_list.o
 .text.LIST_AddPrevElement
                0x0000000000000000       0x52 ./component/lists/fsl_component_generic_list.o
 .text.LIST_GetSize
                0x0000000000000000        0x4 ./component/lists/fsl_component_generic_list.o
 .text.LIST_GetAvailableSize
                0x0000000000000000        0x8 ./component/lists/fsl_component_generic_list.o
 .debug_info    0x0000000000000000      0xd30 ./component/lists/fsl_component_generic_list.o
 .debug_abbrev  0x0000000000000000      0x327 ./component/lists/fsl_component_generic_list.o
 .debug_loc     0x0000000000000000      0x6d4 ./component/lists/fsl_component_generic_list.o
 .debug_aranges
                0x0000000000000000       0x78 ./component/lists/fsl_component_generic_list.o
 .debug_ranges  0x0000000000000000      0x218 ./component/lists/fsl_component_generic_list.o
 .debug_line    0x0000000000000000      0x776 ./component/lists/fsl_component_generic_list.o
 .debug_str     0x0000000000000000      0x64d ./component/lists/fsl_component_generic_list.o
 .comment       0x0000000000000000       0x4a ./component/lists/fsl_component_generic_list.o
 .debug_frame   0x0000000000000000       0xf8 ./component/lists/fsl_component_generic_list.o
 .ARM.attributes
                0x0000000000000000       0x34 ./component/lists/fsl_component_generic_list.o
 .text          0x0000000000000000        0x0 ./board/board.o
 .data          0x0000000000000000        0x0 ./board/board.o
 .bss           0x0000000000000000        0x0 ./board/board.o
 .text.BOARD_ConfigMPU
                0x0000000000000000      0x2a0 ./board/board.o
 .text.BOARD_SD_Pin_Config
                0x0000000000000000        0x2 ./board/board.o
 .text.BOARD_MMC_Pin_Config
                0x0000000000000000        0x2 ./board/board.o
 .text          0x0000000000000000        0x0 ./board/clock_config.o
 .data          0x0000000000000000        0x0 ./board/clock_config.o
 .bss           0x0000000000000000        0x0 ./board/clock_config.o
 .text.BOARD_BootClockRUN_800M
                0x0000000000000000      0x4e8 ./board/clock_config.o
 .rodata.armPllConfig_BOARD_BootClockRUN_800M
                0x0000000000000000        0x8 ./board/clock_config.o
 .rodata.sysPll2Config_BOARD_BootClockRUN_800M
                0x0000000000000000        0xc ./board/clock_config.o
 .rodata.videoPllConfig_BOARD_BootClockRUN_800M
                0x0000000000000000       0x14 ./board/clock_config.o
 .text          0x0000000000000000        0x0 ./board/dcd.o
 .data          0x0000000000000000        0x0 ./board/dcd.o
 .bss           0x0000000000000000        0x0 ./board/dcd.o
 .rodata.dcd_data
                0x0000000000000000        0x1 ./board/dcd.o
 .debug_info    0x0000000000000000       0x9d ./board/dcd.o
 .debug_abbrev  0x0000000000000000       0x61 ./board/dcd.o
 .debug_aranges
                0x0000000000000000       0x18 ./board/dcd.o
 .debug_line    0x0000000000000000       0xb8 ./board/dcd.o
 .debug_str     0x0000000000000000      0x1b8 ./board/dcd.o
 .comment       0x0000000000000000       0x4a ./board/dcd.o
 .ARM.attributes
                0x0000000000000000       0x34 ./board/dcd.o
 .text          0x0000000000000000        0x0 ./board/peripherals.o
 .data          0x0000000000000000        0x0 ./board/peripherals.o
 .bss           0x0000000000000000        0x0 ./board/peripherals.o
 .text.BOARD_InitPeripherals
                0x0000000000000000        0x2 ./board/peripherals.o
 .text          0x0000000000000000        0x0 ./board/pin_mux.o
 .data          0x0000000000000000        0x0 ./board/pin_mux.o
 .bss           0x0000000000000000        0x0 ./board/pin_mux.o
 .text          0x0000000000000000        0x0 ./board/xmcd.o
 .data          0x0000000000000000        0x0 ./board/xmcd.o
 .bss           0x0000000000000000        0x0 ./board/xmcd.o
 .boot_hdr.xmcd_data
                0x0000000000000000       0x10 ./board/xmcd.o
 .debug_info    0x0000000000000000       0x9c ./board/xmcd.o
 .debug_abbrev  0x0000000000000000       0x61 ./board/xmcd.o
 .debug_aranges
                0x0000000000000000       0x18 ./board/xmcd.o
 .debug_line    0x0000000000000000       0xb9 ./board/xmcd.o
 .debug_str     0x0000000000000000      0x1bb ./board/xmcd.o
 .comment       0x0000000000000000       0x4a ./board/xmcd.o
 .ARM.attributes
                0x0000000000000000       0x34 ./board/xmcd.o
 .text          0x0000000000000000        0x0 /Applications/MCUXpressoIDE_11.7.0_9198/ide/plugins/com.nxp.mcuxpresso.tools.macosx_11.7.0.202209140929/tools/bin/../lib/gcc/arm-none-eabi/10.3.1/../../../../arm-none-eabi/lib/thumb/v7e-m+fp/hard/libcr_nohost_nf.a(_cr__main.o)
 .data          0x0000000000000000        0x0 /Applications/MCUXpressoIDE_11.7.0_9198/ide/plugins/com.nxp.mcuxpresso.tools.macosx_11.7.0.202209140929/tools/bin/../lib/gcc/arm-none-eabi/10.3.1/../../../../arm-none-eabi/lib/thumb/v7e-m+fp/hard/libcr_nohost_nf.a(_cr__main.o)
 .bss           0x0000000000000000        0x0 /Applications/MCUXpressoIDE_11.7.0_9198/ide/plugins/com.nxp.mcuxpresso.tools.macosx_11.7.0.202209140929/tools/bin/../lib/gcc/arm-none-eabi/10.3.1/../../../../arm-none-eabi/lib/thumb/v7e-m+fp/hard/libcr_nohost_nf.a(_cr__main.o)
 .text          0x0000000000000000        0x0 /Applications/MCUXpressoIDE_11.7.0_9198/ide/plugins/com.nxp.mcuxpresso.tools.macosx_11.7.0.202209140929/tools/bin/../lib/gcc/arm-none-eabi/10.3.1/../../../../arm-none-eabi/lib/thumb/v7e-m+fp/hard/libcr_c.a(memcpy.o)
 .data          0x0000000000000000        0x0 /Applications/MCUXpressoIDE_11.7.0_9198/ide/plugins/com.nxp.mcuxpresso.tools.macosx_11.7.0.202209140929/tools/bin/../lib/gcc/arm-none-eabi/10.3.1/../../../../arm-none-eabi/lib/thumb/v7e-m+fp/hard/libcr_c.a(memcpy.o)
 .bss           0x0000000000000000        0x0 /Applications/MCUXpressoIDE_11.7.0_9198/ide/plugins/com.nxp.mcuxpresso.tools.macosx_11.7.0.202209140929/tools/bin/../lib/gcc/arm-none-eabi/10.3.1/../../../../arm-none-eabi/lib/thumb/v7e-m+fp/hard/libcr_c.a(memcpy.o)
 .text          0x0000000000000000        0x0 /Applications/MCUXpressoIDE_11.7.0_9198/ide/plugins/com.nxp.mcuxpresso.tools.macosx_11.7.0.202209140929/tools/bin/../lib/gcc/arm-none-eabi/10.3.1/../../../../arm-none-eabi/lib/thumb/v7e-m+fp/hard/libcr_c.a(memset.o)
 .data          0x0000000000000000        0x0 /Applications/MCUXpressoIDE_11.7.0_9198/ide/plugins/com.nxp.mcuxpresso.tools.macosx_11.7.0.202209140929/tools/bin/../lib/gcc/arm-none-eabi/10.3.1/../../../../arm-none-eabi/lib/thumb/v7e-m+fp/hard/libcr_c.a(memset.o)
 .bss           0x0000000000000000        0x0 /Applications/MCUXpressoIDE_11.7.0_9198/ide/plugins/com.nxp.mcuxpresso.tools.macosx_11.7.0.202209140929/tools/bin/../lib/gcc/arm-none-eabi/10.3.1/../../../../arm-none-eabi/lib/thumb/v7e-m+fp/hard/libcr_c.a(memset.o)
 .text          0x0000000000000000        0x0 /Applications/MCUXpressoIDE_11.7.0_9198/ide/plugins/com.nxp.mcuxpresso.tools.macosx_11.7.0.202209140929/tools/bin/../lib/gcc/arm-none-eabi/10.3.1/../../../../arm-none-eabi/lib/thumb/v7e-m+fp/hard/libcr_c.a(alloc.o)
 .data          0x0000000000000000        0x0 /Applications/MCUXpressoIDE_11.7.0_9198/ide/plugins/com.nxp.mcuxpresso.tools.macosx_11.7.0.202209140929/tools/bin/../lib/gcc/arm-none-eabi/10.3.1/../../../../arm-none-eabi/lib/thumb/v7e-m+fp/hard/libcr_c.a(alloc.o)
 .bss           0x0000000000000000        0x0 /Applications/MCUXpressoIDE_11.7.0_9198/ide/plugins/com.nxp.mcuxpresso.tools.macosx_11.7.0.202209140929/tools/bin/../lib/gcc/arm-none-eabi/10.3.1/../../../../arm-none-eabi/lib/thumb/v7e-m+fp/hard/libcr_c.a(alloc.o)
 .text.malloc   0x0000000000000000       0xc8 /Applications/MCUXpressoIDE_11.7.0_9198/ide/plugins/com.nxp.mcuxpresso.tools.macosx_11.7.0.202209140929/tools/bin/../lib/gcc/arm-none-eabi/10.3.1/../../../../arm-none-eabi/lib/thumb/v7e-m+fp/hard/libcr_c.a(alloc.o)
 .text.calloc   0x0000000000000000       0x54 /Applications/MCUXpressoIDE_11.7.0_9198/ide/plugins/com.nxp.mcuxpresso.tools.macosx_11.7.0.202209140929/tools/bin/../lib/gcc/arm-none-eabi/10.3.1/../../../../arm-none-eabi/lib/thumb/v7e-m+fp/hard/libcr_c.a(alloc.o)
 .rodata._Csys_alloc.str1.1
                0x0000000000000000       0x18 /Applications/MCUXpressoIDE_11.7.0_9198/ide/plugins/com.nxp.mcuxpresso.tools.macosx_11.7.0.202209140929/tools/bin/../lib/gcc/arm-none-eabi/10.3.1/../../../../arm-none-eabi/lib/thumb/v7e-m+fp/hard/libcr_c.a(alloc.o)
 .text._Csys_alloc
                0x0000000000000000       0x20 /Applications/MCUXpressoIDE_11.7.0_9198/ide/plugins/com.nxp.mcuxpresso.tools.macosx_11.7.0.202209140929/tools/bin/../lib/gcc/arm-none-eabi/10.3.1/../../../../arm-none-eabi/lib/thumb/v7e-m+fp/hard/libcr_c.a(alloc.o)
 .text.realloc  0x0000000000000000       0x26 /Applications/MCUXpressoIDE_11.7.0_9198/ide/plugins/com.nxp.mcuxpresso.tools.macosx_11.7.0.202209140929/tools/bin/../lib/gcc/arm-none-eabi/10.3.1/../../../../arm-none-eabi/lib/thumb/v7e-m+fp/hard/libcr_c.a(alloc.o)
 .text          0x0000000000000000        0x0 /Applications/MCUXpressoIDE_11.7.0_9198/ide/plugins/com.nxp.mcuxpresso.tools.macosx_11.7.0.202209140929/tools/bin/../lib/gcc/arm-none-eabi/10.3.1/../../../../arm-none-eabi/lib/thumb/v7e-m+fp/hard/libcr_c.a(errno.o)
 .data          0x0000000000000000        0x0 /Applications/MCUXpressoIDE_11.7.0_9198/ide/plugins/com.nxp.mcuxpresso.tools.macosx_11.7.0.202209140929/tools/bin/../lib/gcc/arm-none-eabi/10.3.1/../../../../arm-none-eabi/lib/thumb/v7e-m+fp/hard/libcr_c.a(errno.o)
 .bss           0x0000000000000000        0x0 /Applications/MCUXpressoIDE_11.7.0_9198/ide/plugins/com.nxp.mcuxpresso.tools.macosx_11.7.0.202209140929/tools/bin/../lib/gcc/arm-none-eabi/10.3.1/../../../../arm-none-eabi/lib/thumb/v7e-m+fp/hard/libcr_c.a(errno.o)
 .text          0x0000000000000000        0x0 /Applications/MCUXpressoIDE_11.7.0_9198/ide/plugins/com.nxp.mcuxpresso.tools.macosx_11.7.0.202209140929/tools/bin/../lib/gcc/arm-none-eabi/10.3.1/../../../../arm-none-eabi/lib/thumb/v7e-m+fp/hard/libcr_c.a(initio.o)
 .data          0x0000000000000000        0x0 /Applications/MCUXpressoIDE_11.7.0_9198/ide/plugins/com.nxp.mcuxpresso.tools.macosx_11.7.0.202209140929/tools/bin/../lib/gcc/arm-none-eabi/10.3.1/../../../../arm-none-eabi/lib/thumb/v7e-m+fp/hard/libcr_c.a(initio.o)
 .bss           0x0000000000000000        0x0 /Applications/MCUXpressoIDE_11.7.0_9198/ide/plugins/com.nxp.mcuxpresso.tools.macosx_11.7.0.202209140929/tools/bin/../lib/gcc/arm-none-eabi/10.3.1/../../../../arm-none-eabi/lib/thumb/v7e-m+fp/hard/libcr_c.a(initio.o)
 .text._terminateio
                0x0000000000000000       0x50 /Applications/MCUXpressoIDE_11.7.0_9198/ide/plugins/com.nxp.mcuxpresso.tools.macosx_11.7.0.202209140929/tools/bin/../lib/gcc/arm-none-eabi/10.3.1/../../../../arm-none-eabi/lib/thumb/v7e-m+fp/hard/libcr_c.a(initio.o)
 .text          0x0000000000000000        0x0 /Applications/MCUXpressoIDE_11.7.0_9198/ide/plugins/com.nxp.mcuxpresso.tools.macosx_11.7.0.202209140929/tools/bin/../lib/gcc/arm-none-eabi/10.3.1/../../../../arm-none-eabi/lib/thumb/v7e-m+fp/hard/libcr_c.a(scanf.o)
 .data          0x0000000000000000        0x0 /Applications/MCUXpressoIDE_11.7.0_9198/ide/plugins/com.nxp.mcuxpresso.tools.macosx_11.7.0.202209140929/tools/bin/../lib/gcc/arm-none-eabi/10.3.1/../../../../arm-none-eabi/lib/thumb/v7e-m+fp/hard/libcr_c.a(scanf.o)
 .bss           0x0000000000000000        0x0 /Applications/MCUXpressoIDE_11.7.0_9198/ide/plugins/com.nxp.mcuxpresso.tools.macosx_11.7.0.202209140929/tools/bin/../lib/gcc/arm-none-eabi/10.3.1/../../../../arm-none-eabi/lib/thumb/v7e-m+fp/hard/libcr_c.a(scanf.o)
 .text.ch_val   0x0000000000000000       0x30 /Applications/MCUXpressoIDE_11.7.0_9198/ide/plugins/com.nxp.mcuxpresso.tools.macosx_11.7.0.202209140929/tools/bin/../lib/gcc/arm-none-eabi/10.3.1/../../../../arm-none-eabi/lib/thumb/v7e-m+fp/hard/libcr_c.a(scanf.o)
 .text._strtoul
                0x0000000000000000       0xb8 /Applications/MCUXpressoIDE_11.7.0_9198/ide/plugins/com.nxp.mcuxpresso.tools.macosx_11.7.0.202209140929/tools/bin/../lib/gcc/arm-none-eabi/10.3.1/../../../../arm-none-eabi/lib/thumb/v7e-m+fp/hard/libcr_c.a(scanf.o)
 .text._strtoull
                0x0000000000000000       0xf4 /Applications/MCUXpressoIDE_11.7.0_9198/ide/plugins/com.nxp.mcuxpresso.tools.macosx_11.7.0.202209140929/tools/bin/../lib/gcc/arm-none-eabi/10.3.1/../../../../arm-none-eabi/lib/thumb/v7e-m+fp/hard/libcr_c.a(scanf.o)
 .text.cr_rd_int
                0x0000000000000000      0x1a8 /Applications/MCUXpressoIDE_11.7.0_9198/ide/plugins/com.nxp.mcuxpresso.tools.macosx_11.7.0.202209140929/tools/bin/../lib/gcc/arm-none-eabi/10.3.1/../../../../arm-none-eabi/lib/thumb/v7e-m+fp/hard/libcr_c.a(scanf.o)
 .text.vfscanf  0x0000000000000000      0x990 /Applications/MCUXpressoIDE_11.7.0_9198/ide/plugins/com.nxp.mcuxpresso.tools.macosx_11.7.0.202209140929/tools/bin/../lib/gcc/arm-none-eabi/10.3.1/../../../../arm-none-eabi/lib/thumb/v7e-m+fp/hard/libcr_c.a(scanf.o)
 .text._ncc_vfscanf
                0x0000000000000000        0x4 /Applications/MCUXpressoIDE_11.7.0_9198/ide/plugins/com.nxp.mcuxpresso.tools.macosx_11.7.0.202209140929/tools/bin/../lib/gcc/arm-none-eabi/10.3.1/../../../../arm-none-eabi/lib/thumb/v7e-m+fp/hard/libcr_c.a(scanf.o)
 .text.fscanf   0x0000000000000000       0x1a /Applications/MCUXpressoIDE_11.7.0_9198/ide/plugins/com.nxp.mcuxpresso.tools.macosx_11.7.0.202209140929/tools/bin/../lib/gcc/arm-none-eabi/10.3.1/../../../../arm-none-eabi/lib/thumb/v7e-m+fp/hard/libcr_c.a(scanf.o)
 .text.scanf    0x0000000000000000       0x20 /Applications/MCUXpressoIDE_11.7.0_9198/ide/plugins/com.nxp.mcuxpresso.tools.macosx_11.7.0.202209140929/tools/bin/../lib/gcc/arm-none-eabi/10.3.1/../../../../arm-none-eabi/lib/thumb/v7e-m+fp/hard/libcr_c.a(scanf.o)
 .text.sscanf   0x0000000000000000       0x3e /Applications/MCUXpressoIDE_11.7.0_9198/ide/plugins/com.nxp.mcuxpresso.tools.macosx_11.7.0.202209140929/tools/bin/../lib/gcc/arm-none-eabi/10.3.1/../../../../arm-none-eabi/lib/thumb/v7e-m+fp/hard/libcr_c.a(scanf.o)
 .rodata.strtod.str1.1
                0x0000000000000000        0x6 /Applications/MCUXpressoIDE_11.7.0_9198/ide/plugins/com.nxp.mcuxpresso.tools.macosx_11.7.0.202209140929/tools/bin/../lib/gcc/arm-none-eabi/10.3.1/../../../../arm-none-eabi/lib/thumb/v7e-m+fp/hard/libcr_c.a(scanf.o)
 .text.strtod   0x0000000000000000       0x3c /Applications/MCUXpressoIDE_11.7.0_9198/ide/plugins/com.nxp.mcuxpresso.tools.macosx_11.7.0.202209140929/tools/bin/../lib/gcc/arm-none-eabi/10.3.1/../../../../arm-none-eabi/lib/thumb/v7e-m+fp/hard/libcr_c.a(scanf.o)
 .text.strtof   0x0000000000000000       0x14 /Applications/MCUXpressoIDE_11.7.0_9198/ide/plugins/com.nxp.mcuxpresso.tools.macosx_11.7.0.202209140929/tools/bin/../lib/gcc/arm-none-eabi/10.3.1/../../../../arm-none-eabi/lib/thumb/v7e-m+fp/hard/libcr_c.a(scanf.o)
 .text.strtol   0x0000000000000000       0x7c /Applications/MCUXpressoIDE_11.7.0_9198/ide/plugins/com.nxp.mcuxpresso.tools.macosx_11.7.0.202209140929/tools/bin/../lib/gcc/arm-none-eabi/10.3.1/../../../../arm-none-eabi/lib/thumb/v7e-m+fp/hard/libcr_c.a(scanf.o)
 .text.strtoul  0x0000000000000000       0x88 /Applications/MCUXpressoIDE_11.7.0_9198/ide/plugins/com.nxp.mcuxpresso.tools.macosx_11.7.0.202209140929/tools/bin/../lib/gcc/arm-none-eabi/10.3.1/../../../../arm-none-eabi/lib/thumb/v7e-m+fp/hard/libcr_c.a(scanf.o)
 .text.strtoll  0x0000000000000000       0x84 /Applications/MCUXpressoIDE_11.7.0_9198/ide/plugins/com.nxp.mcuxpresso.tools.macosx_11.7.0.202209140929/tools/bin/../lib/gcc/arm-none-eabi/10.3.1/../../../../arm-none-eabi/lib/thumb/v7e-m+fp/hard/libcr_c.a(scanf.o)
 .text.strtoull
                0x0000000000000000       0x90 /Applications/MCUXpressoIDE_11.7.0_9198/ide/plugins/com.nxp.mcuxpresso.tools.macosx_11.7.0.202209140929/tools/bin/../lib/gcc/arm-none-eabi/10.3.1/../../../../arm-none-eabi/lib/thumb/v7e-m+fp/hard/libcr_c.a(scanf.o)
 .text.atof     0x0000000000000000       0x14 /Applications/MCUXpressoIDE_11.7.0_9198/ide/plugins/com.nxp.mcuxpresso.tools.macosx_11.7.0.202209140929/tools/bin/../lib/gcc/arm-none-eabi/10.3.1/../../../../arm-none-eabi/lib/thumb/v7e-m+fp/hard/libcr_c.a(scanf.o)
 .text.atoi     0x0000000000000000       0x18 /Applications/MCUXpressoIDE_11.7.0_9198/ide/plugins/com.nxp.mcuxpresso.tools.macosx_11.7.0.202209140929/tools/bin/../lib/gcc/arm-none-eabi/10.3.1/../../../../arm-none-eabi/lib/thumb/v7e-m+fp/hard/libcr_c.a(scanf.o)
 .text.atol     0x0000000000000000        0x4 /Applications/MCUXpressoIDE_11.7.0_9198/ide/plugins/com.nxp.mcuxpresso.tools.macosx_11.7.0.202209140929/tools/bin/../lib/gcc/arm-none-eabi/10.3.1/../../../../arm-none-eabi/lib/thumb/v7e-m+fp/hard/libcr_c.a(scanf.o)
 .text.atoll    0x0000000000000000       0x18 /Applications/MCUXpressoIDE_11.7.0_9198/ide/plugins/com.nxp.mcuxpresso.tools.macosx_11.7.0.202209140929/tools/bin/../lib/gcc/arm-none-eabi/10.3.1/../../../../arm-none-eabi/lib/thumb/v7e-m+fp/hard/libcr_c.a(scanf.o)
 .data.neginf.0
                0x0000000000000000        0x4 /Applications/MCUXpressoIDE_11.7.0_9198/ide/plugins/com.nxp.mcuxpresso.tools.macosx_11.7.0.202209140929/tools/bin/../lib/gcc/arm-none-eabi/10.3.1/../../../../arm-none-eabi/lib/thumb/v7e-m+fp/hard/libcr_c.a(scanf.o)
 .data.posinf.1
                0x0000000000000000        0x4 /Applications/MCUXpressoIDE_11.7.0_9198/ide/plugins/com.nxp.mcuxpresso.tools.macosx_11.7.0.202209140929/tools/bin/../lib/gcc/arm-none-eabi/10.3.1/../../../../arm-none-eabi/lib/thumb/v7e-m+fp/hard/libcr_c.a(scanf.o)
 .comment       0x0000000000000000       0x4a /Applications/MCUXpressoIDE_11.7.0_9198/ide/plugins/com.nxp.mcuxpresso.tools.macosx_11.7.0.202209140929/tools/bin/../lib/gcc/arm-none-eabi/10.3.1/../../../../arm-none-eabi/lib/thumb/v7e-m+fp/hard/libcr_c.a(scanf.o)
 .ARM.attributes
                0x0000000000000000       0x34 /Applications/MCUXpressoIDE_11.7.0_9198/ide/plugins/com.nxp.mcuxpresso.tools.macosx_11.7.0.202209140929/tools/bin/../lib/gcc/arm-none-eabi/10.3.1/../../../../arm-none-eabi/lib/thumb/v7e-m+fp/hard/libcr_c.a(scanf.o)
 .text          0x0000000000000000        0x0 /Applications/MCUXpressoIDE_11.7.0_9198/ide/plugins/com.nxp.mcuxpresso.tools.macosx_11.7.0.202209140929/tools/bin/../lib/gcc/arm-none-eabi/10.3.1/../../../../arm-none-eabi/lib/thumb/v7e-m+fp/hard/libcr_c.a(setvbuf.o)
 .data          0x0000000000000000        0x0 /Applications/MCUXpressoIDE_11.7.0_9198/ide/plugins/com.nxp.mcuxpresso.tools.macosx_11.7.0.202209140929/tools/bin/../lib/gcc/arm-none-eabi/10.3.1/../../../../arm-none-eabi/lib/thumb/v7e-m+fp/hard/libcr_c.a(setvbuf.o)
 .bss           0x0000000000000000        0x0 /Applications/MCUXpressoIDE_11.7.0_9198/ide/plugins/com.nxp.mcuxpresso.tools.macosx_11.7.0.202209140929/tools/bin/../lib/gcc/arm-none-eabi/10.3.1/../../../../arm-none-eabi/lib/thumb/v7e-m+fp/hard/libcr_c.a(setvbuf.o)
 .text          0x0000000000000000        0x0 /Applications/MCUXpressoIDE_11.7.0_9198/ide/plugins/com.nxp.mcuxpresso.tools.macosx_11.7.0.202209140929/tools/bin/../lib/gcc/arm-none-eabi/10.3.1/../../../../arm-none-eabi/lib/thumb/v7e-m+fp/hard/libcr_c.a(strlen.o)
 .data          0x0000000000000000        0x0 /Applications/MCUXpressoIDE_11.7.0_9198/ide/plugins/com.nxp.mcuxpresso.tools.macosx_11.7.0.202209140929/tools/bin/../lib/gcc/arm-none-eabi/10.3.1/../../../../arm-none-eabi/lib/thumb/v7e-m+fp/hard/libcr_c.a(strlen.o)
 .bss           0x0000000000000000        0x0 /Applications/MCUXpressoIDE_11.7.0_9198/ide/plugins/com.nxp.mcuxpresso.tools.macosx_11.7.0.202209140929/tools/bin/../lib/gcc/arm-none-eabi/10.3.1/../../../../arm-none-eabi/lib/thumb/v7e-m+fp/hard/libcr_c.a(strlen.o)
 .text          0x0000000000000000        0x0 /Applications/MCUXpressoIDE_11.7.0_9198/ide/plugins/com.nxp.mcuxpresso.tools.macosx_11.7.0.202209140929/tools/bin/../lib/gcc/arm-none-eabi/10.3.1/../../../../arm-none-eabi/lib/thumb/v7e-m+fp/hard/libcr_c.a(ungetc.o)
 .data          0x0000000000000000        0x0 /Applications/MCUXpressoIDE_11.7.0_9198/ide/plugins/com.nxp.mcuxpresso.tools.macosx_11.7.0.202209140929/tools/bin/../lib/gcc/arm-none-eabi/10.3.1/../../../../arm-none-eabi/lib/thumb/v7e-m+fp/hard/libcr_c.a(ungetc.o)
 .bss           0x0000000000000000        0x0 /Applications/MCUXpressoIDE_11.7.0_9198/ide/plugins/com.nxp.mcuxpresso.tools.macosx_11.7.0.202209140929/tools/bin/../lib/gcc/arm-none-eabi/10.3.1/../../../../arm-none-eabi/lib/thumb/v7e-m+fp/hard/libcr_c.a(ungetc.o)
 .text.ungetc   0x0000000000000000       0x32 /Applications/MCUXpressoIDE_11.7.0_9198/ide/plugins/com.nxp.mcuxpresso.tools.macosx_11.7.0.202209140929/tools/bin/../lib/gcc/arm-none-eabi/10.3.1/../../../../arm-none-eabi/lib/thumb/v7e-m+fp/hard/libcr_c.a(ungetc.o)
 .comment       0x0000000000000000       0x4a /Applications/MCUXpressoIDE_11.7.0_9198/ide/plugins/com.nxp.mcuxpresso.tools.macosx_11.7.0.202209140929/tools/bin/../lib/gcc/arm-none-eabi/10.3.1/../../../../arm-none-eabi/lib/thumb/v7e-m+fp/hard/libcr_c.a(ungetc.o)
 .ARM.attributes
                0x0000000000000000       0x34 /Applications/MCUXpressoIDE_11.7.0_9198/ide/plugins/com.nxp.mcuxpresso.tools.macosx_11.7.0.202209140929/tools/bin/../lib/gcc/arm-none-eabi/10.3.1/../../../../arm-none-eabi/lib/thumb/v7e-m+fp/hard/libcr_c.a(ungetc.o)
 .text          0x0000000000000000        0x0 /Applications/MCUXpressoIDE_11.7.0_9198/ide/plugins/com.nxp.mcuxpresso.tools.macosx_11.7.0.202209140929/tools/bin/../lib/gcc/arm-none-eabi/10.3.1/../../../../arm-none-eabi/lib/thumb/v7e-m+fp/hard/libcr_c.a(__fillbuf.o)
 .data          0x0000000000000000        0x0 /Applications/MCUXpressoIDE_11.7.0_9198/ide/plugins/com.nxp.mcuxpresso.tools.macosx_11.7.0.202209140929/tools/bin/../lib/gcc/arm-none-eabi/10.3.1/../../../../arm-none-eabi/lib/thumb/v7e-m+fp/hard/libcr_c.a(__fillbuf.o)
 .bss           0x0000000000000000        0x0 /Applications/MCUXpressoIDE_11.7.0_9198/ide/plugins/com.nxp.mcuxpresso.tools.macosx_11.7.0.202209140929/tools/bin/../lib/gcc/arm-none-eabi/10.3.1/../../../../arm-none-eabi/lib/thumb/v7e-m+fp/hard/libcr_c.a(__fillbuf.o)
 .text._Csys_read_
                0x0000000000000000       0x22 /Applications/MCUXpressoIDE_11.7.0_9198/ide/plugins/com.nxp.mcuxpresso.tools.macosx_11.7.0.202209140929/tools/bin/../lib/gcc/arm-none-eabi/10.3.1/../../../../arm-none-eabi/lib/thumb/v7e-m+fp/hard/libcr_c.a(__fillbuf.o)
 .text.__filbuf
                0x0000000000000000      0x178 /Applications/MCUXpressoIDE_11.7.0_9198/ide/plugins/com.nxp.mcuxpresso.tools.macosx_11.7.0.202209140929/tools/bin/../lib/gcc/arm-none-eabi/10.3.1/../../../../arm-none-eabi/lib/thumb/v7e-m+fp/hard/libcr_c.a(__fillbuf.o)
 .text._fillb2  0x0000000000000000       0x1c /Applications/MCUXpressoIDE_11.7.0_9198/ide/plugins/com.nxp.mcuxpresso.tools.macosx_11.7.0.202209140929/tools/bin/../lib/gcc/arm-none-eabi/10.3.1/../../../../arm-none-eabi/lib/thumb/v7e-m+fp/hard/libcr_c.a(__fillbuf.o)
 .comment       0x0000000000000000       0x4a /Applications/MCUXpressoIDE_11.7.0_9198/ide/plugins/com.nxp.mcuxpresso.tools.macosx_11.7.0.202209140929/tools/bin/../lib/gcc/arm-none-eabi/10.3.1/../../../../arm-none-eabi/lib/thumb/v7e-m+fp/hard/libcr_c.a(__fillbuf.o)
 .ARM.attributes
                0x0000000000000000       0x34 /Applications/MCUXpressoIDE_11.7.0_9198/ide/plugins/com.nxp.mcuxpresso.tools.macosx_11.7.0.202209140929/tools/bin/../lib/gcc/arm-none-eabi/10.3.1/../../../../arm-none-eabi/lib/thumb/v7e-m+fp/hard/libcr_c.a(__fillbuf.o)
 .text          0x0000000000000000        0x0 /Applications/MCUXpressoIDE_11.7.0_9198/ide/plugins/com.nxp.mcuxpresso.tools.macosx_11.7.0.202209140929/tools/bin/../lib/gcc/arm-none-eabi/10.3.1/../../../../arm-none-eabi/lib/thumb/v7e-m+fp/hard/libcr_c.a(__init_alloc.o)
 .data          0x0000000000000000        0x0 /Applications/MCUXpressoIDE_11.7.0_9198/ide/plugins/com.nxp.mcuxpresso.tools.macosx_11.7.0.202209140929/tools/bin/../lib/gcc/arm-none-eabi/10.3.1/../../../../arm-none-eabi/lib/thumb/v7e-m+fp/hard/libcr_c.a(__init_alloc.o)
 .bss           0x0000000000000000        0x0 /Applications/MCUXpressoIDE_11.7.0_9198/ide/plugins/com.nxp.mcuxpresso.tools.macosx_11.7.0.202209140929/tools/bin/../lib/gcc/arm-none-eabi/10.3.1/../../../../arm-none-eabi/lib/thumb/v7e-m+fp/hard/libcr_c.a(__init_alloc.o)
 .text._init_alloc
                0x0000000000000000       0x14 /Applications/MCUXpressoIDE_11.7.0_9198/ide/plugins/com.nxp.mcuxpresso.tools.macosx_11.7.0.202209140929/tools/bin/../lib/gcc/arm-none-eabi/10.3.1/../../../../arm-none-eabi/lib/thumb/v7e-m+fp/hard/libcr_c.a(__init_alloc.o)
 .bss.__end_of_heap
                0x0000000000000000        0x4 /Applications/MCUXpressoIDE_11.7.0_9198/ide/plugins/com.nxp.mcuxpresso.tools.macosx_11.7.0.202209140929/tools/bin/../lib/gcc/arm-none-eabi/10.3.1/../../../../arm-none-eabi/lib/thumb/v7e-m+fp/hard/libcr_c.a(__init_alloc.o)
 .bss.__heaps   0x0000000000000000        0x4 /Applications/MCUXpressoIDE_11.7.0_9198/ide/plugins/com.nxp.mcuxpresso.tools.macosx_11.7.0.202209140929/tools/bin/../lib/gcc/arm-none-eabi/10.3.1/../../../../arm-none-eabi/lib/thumb/v7e-m+fp/hard/libcr_c.a(__init_alloc.o)
 .comment       0x0000000000000000       0x4a /Applications/MCUXpressoIDE_11.7.0_9198/ide/plugins/com.nxp.mcuxpresso.tools.macosx_11.7.0.202209140929/tools/bin/../lib/gcc/arm-none-eabi/10.3.1/../../../../arm-none-eabi/lib/thumb/v7e-m+fp/hard/libcr_c.a(__init_alloc.o)
 .ARM.attributes
                0x0000000000000000       0x34 /Applications/MCUXpressoIDE_11.7.0_9198/ide/plugins/com.nxp.mcuxpresso.tools.macosx_11.7.0.202209140929/tools/bin/../lib/gcc/arm-none-eabi/10.3.1/../../../../arm-none-eabi/lib/thumb/v7e-m+fp/hard/libcr_c.a(__init_alloc.o)
 .text          0x0000000000000000        0x0 /Applications/MCUXpressoIDE_11.7.0_9198/ide/plugins/com.nxp.mcuxpresso.tools.macosx_11.7.0.202209140929/tools/bin/../lib/gcc/arm-none-eabi/10.3.1/../../../../arm-none-eabi/lib/thumb/v7e-m+fp/hard/libcr_c.a(_cr_sbrk.o)
 .data          0x0000000000000000        0x0 /Applications/MCUXpressoIDE_11.7.0_9198/ide/plugins/com.nxp.mcuxpresso.tools.macosx_11.7.0.202209140929/tools/bin/../lib/gcc/arm-none-eabi/10.3.1/../../../../arm-none-eabi/lib/thumb/v7e-m+fp/hard/libcr_c.a(_cr_sbrk.o)
 .bss           0x0000000000000000        0x0 /Applications/MCUXpressoIDE_11.7.0_9198/ide/plugins/com.nxp.mcuxpresso.tools.macosx_11.7.0.202209140929/tools/bin/../lib/gcc/arm-none-eabi/10.3.1/../../../../arm-none-eabi/lib/thumb/v7e-m+fp/hard/libcr_c.a(_cr_sbrk.o)
 .text._sbrk    0x0000000000000000       0x3c /Applications/MCUXpressoIDE_11.7.0_9198/ide/plugins/com.nxp.mcuxpresso.tools.macosx_11.7.0.202209140929/tools/bin/../lib/gcc/arm-none-eabi/10.3.1/../../../../arm-none-eabi/lib/thumb/v7e-m+fp/hard/libcr_c.a(_cr_sbrk.o)
 .comment       0x0000000000000000       0x4a /Applications/MCUXpressoIDE_11.7.0_9198/ide/plugins/com.nxp.mcuxpresso.tools.macosx_11.7.0.202209140929/tools/bin/../lib/gcc/arm-none-eabi/10.3.1/../../../../arm-none-eabi/lib/thumb/v7e-m+fp/hard/libcr_c.a(_cr_sbrk.o)
 .ARM.attributes
                0x0000000000000000       0x34 /Applications/MCUXpressoIDE_11.7.0_9198/ide/plugins/com.nxp.mcuxpresso.tools.macosx_11.7.0.202209140929/tools/bin/../lib/gcc/arm-none-eabi/10.3.1/../../../../arm-none-eabi/lib/thumb/v7e-m+fp/hard/libcr_c.a(_cr_sbrk.o)
 .text          0x0000000000000000        0x0 /Applications/MCUXpressoIDE_11.7.0_9198/ide/plugins/com.nxp.mcuxpresso.tools.macosx_11.7.0.202209140929/tools/bin/../lib/gcc/arm-none-eabi/10.3.1/../../../../arm-none-eabi/lib/thumb/v7e-m+fp/hard/libcr_c.a(_deferredlazyseek.o)
 .data          0x0000000000000000        0x0 /Applications/MCUXpressoIDE_11.7.0_9198/ide/plugins/com.nxp.mcuxpresso.tools.macosx_11.7.0.202209140929/tools/bin/../lib/gcc/arm-none-eabi/10.3.1/../../../../arm-none-eabi/lib/thumb/v7e-m+fp/hard/libcr_c.a(_deferredlazyseek.o)
 .bss           0x0000000000000000        0x0 /Applications/MCUXpressoIDE_11.7.0_9198/ide/plugins/com.nxp.mcuxpresso.tools.macosx_11.7.0.202209140929/tools/bin/../lib/gcc/arm-none-eabi/10.3.1/../../../../arm-none-eabi/lib/thumb/v7e-m+fp/hard/libcr_c.a(_deferredlazyseek.o)
 .text.__flsbuf
                0x0000000000000000      0x140 /Applications/MCUXpressoIDE_11.7.0_9198/ide/plugins/com.nxp.mcuxpresso.tools.macosx_11.7.0.202209140929/tools/bin/../lib/gcc/arm-none-eabi/10.3.1/../../../../arm-none-eabi/lib/thumb/v7e-m+fp/hard/libcr_c.a(_deferredlazyseek.o)
 .text          0x0000000000000000        0x0 /Applications/MCUXpressoIDE_11.7.0_9198/ide/plugins/com.nxp.mcuxpresso.tools.macosx_11.7.0.202209140929/tools/bin/../lib/gcc/arm-none-eabi/10.3.1/../../../../arm-none-eabi/lib/thumb/v7e-m+fp/hard/libcr_c.a(_fdopen.o)
 .data          0x0000000000000000        0x0 /Applications/MCUXpressoIDE_11.7.0_9198/ide/plugins/com.nxp.mcuxpresso.tools.macosx_11.7.0.202209140929/tools/bin/../lib/gcc/arm-none-eabi/10.3.1/../../../../arm-none-eabi/lib/thumb/v7e-m+fp/hard/libcr_c.a(_fdopen.o)
 .bss           0x0000000000000000        0x0 /Applications/MCUXpressoIDE_11.7.0_9198/ide/plugins/com.nxp.mcuxpresso.tools.macosx_11.7.0.202209140929/tools/bin/../lib/gcc/arm-none-eabi/10.3.1/../../../../arm-none-eabi/lib/thumb/v7e-m+fp/hard/libcr_c.a(_fdopen.o)
 .text          0x0000000000000000        0x0 /Applications/MCUXpressoIDE_11.7.0_9198/ide/plugins/com.nxp.mcuxpresso.tools.macosx_11.7.0.202209140929/tools/bin/../lib/gcc/arm-none-eabi/10.3.1/../../../../arm-none-eabi/lib/thumb/v7e-m+fp/hard/libcr_c.a(_fflush.o)
 .data          0x0000000000000000        0x0 /Applications/MCUXpressoIDE_11.7.0_9198/ide/plugins/com.nxp.mcuxpresso.tools.macosx_11.7.0.202209140929/tools/bin/../lib/gcc/arm-none-eabi/10.3.1/../../../../arm-none-eabi/lib/thumb/v7e-m+fp/hard/libcr_c.a(_fflush.o)
 .bss           0x0000000000000000        0x0 /Applications/MCUXpressoIDE_11.7.0_9198/ide/plugins/com.nxp.mcuxpresso.tools.macosx_11.7.0.202209140929/tools/bin/../lib/gcc/arm-none-eabi/10.3.1/../../../../arm-none-eabi/lib/thumb/v7e-m+fp/hard/libcr_c.a(_fflush.o)
 .text          0x0000000000000000        0x0 /Applications/MCUXpressoIDE_11.7.0_9198/ide/plugins/com.nxp.mcuxpresso.tools.macosx_11.7.0.202209140929/tools/bin/../lib/gcc/arm-none-eabi/10.3.1/../../../../arm-none-eabi/lib/thumb/v7e-m+fp/hard/libcr_c.a(_frexpl.o)
 .data          0x0000000000000000        0x0 /Applications/MCUXpressoIDE_11.7.0_9198/ide/plugins/com.nxp.mcuxpresso.tools.macosx_11.7.0.202209140929/tools/bin/../lib/gcc/arm-none-eabi/10.3.1/../../../../arm-none-eabi/lib/thumb/v7e-m+fp/hard/libcr_c.a(_frexpl.o)
 .bss           0x0000000000000000        0x0 /Applications/MCUXpressoIDE_11.7.0_9198/ide/plugins/com.nxp.mcuxpresso.tools.macosx_11.7.0.202209140929/tools/bin/../lib/gcc/arm-none-eabi/10.3.1/../../../../arm-none-eabi/lib/thumb/v7e-m+fp/hard/libcr_c.a(_frexpl.o)
 .text._frexpl  0x0000000000000000       0x68 /Applications/MCUXpressoIDE_11.7.0_9198/ide/plugins/com.nxp.mcuxpresso.tools.macosx_11.7.0.202209140929/tools/bin/../lib/gcc/arm-none-eabi/10.3.1/../../../../arm-none-eabi/lib/thumb/v7e-m+fp/hard/libcr_c.a(_frexpl.o)
 .comment       0x0000000000000000       0x4a /Applications/MCUXpressoIDE_11.7.0_9198/ide/plugins/com.nxp.mcuxpresso.tools.macosx_11.7.0.202209140929/tools/bin/../lib/gcc/arm-none-eabi/10.3.1/../../../../arm-none-eabi/lib/thumb/v7e-m+fp/hard/libcr_c.a(_frexpl.o)
 .ARM.attributes
                0x0000000000000000       0x34 /Applications/MCUXpressoIDE_11.7.0_9198/ide/plugins/com.nxp.mcuxpresso.tools.macosx_11.7.0.202209140929/tools/bin/../lib/gcc/arm-none-eabi/10.3.1/../../../../arm-none-eabi/lib/thumb/v7e-m+fp/hard/libcr_c.a(_frexpl.o)
 .text          0x0000000000000000        0x0 /Applications/MCUXpressoIDE_11.7.0_9198/ide/plugins/com.nxp.mcuxpresso.tools.macosx_11.7.0.202209140929/tools/bin/../lib/gcc/arm-none-eabi/10.3.1/../../../../arm-none-eabi/lib/thumb/v7e-m+fp/hard/libcr_c.a(_ldexpl.o)
 .data          0x0000000000000000        0x0 /Applications/MCUXpressoIDE_11.7.0_9198/ide/plugins/com.nxp.mcuxpresso.tools.macosx_11.7.0.202209140929/tools/bin/../lib/gcc/arm-none-eabi/10.3.1/../../../../arm-none-eabi/lib/thumb/v7e-m+fp/hard/libcr_c.a(_ldexpl.o)
 .bss           0x0000000000000000        0x0 /Applications/MCUXpressoIDE_11.7.0_9198/ide/plugins/com.nxp.mcuxpresso.tools.macosx_11.7.0.202209140929/tools/bin/../lib/gcc/arm-none-eabi/10.3.1/../../../../arm-none-eabi/lib/thumb/v7e-m+fp/hard/libcr_c.a(_ldexpl.o)
 .text._ldexpl  0x0000000000000000       0x5c /Applications/MCUXpressoIDE_11.7.0_9198/ide/plugins/com.nxp.mcuxpresso.tools.macosx_11.7.0.202209140929/tools/bin/../lib/gcc/arm-none-eabi/10.3.1/../../../../arm-none-eabi/lib/thumb/v7e-m+fp/hard/libcr_c.a(_ldexpl.o)
 .comment       0x0000000000000000       0x4a /Applications/MCUXpressoIDE_11.7.0_9198/ide/plugins/com.nxp.mcuxpresso.tools.macosx_11.7.0.202209140929/tools/bin/../lib/gcc/arm-none-eabi/10.3.1/../../../../arm-none-eabi/lib/thumb/v7e-m+fp/hard/libcr_c.a(_ldexpl.o)
 .ARM.attributes
                0x0000000000000000       0x34 /Applications/MCUXpressoIDE_11.7.0_9198/ide/plugins/com.nxp.mcuxpresso.tools.macosx_11.7.0.202209140929/tools/bin/../lib/gcc/arm-none-eabi/10.3.1/../../../../arm-none-eabi/lib/thumb/v7e-m+fp/hard/libcr_c.a(_ldexpl.o)
 .text          0x0000000000000000        0x0 /Applications/MCUXpressoIDE_11.7.0_9198/ide/plugins/com.nxp.mcuxpresso.tools.macosx_11.7.0.202209140929/tools/bin/../lib/gcc/arm-none-eabi/10.3.1/../../../../arm-none-eabi/lib/thumb/v7e-m+fp/hard/libcr_c.a(_writebuf.o)
 .data          0x0000000000000000        0x0 /Applications/MCUXpressoIDE_11.7.0_9198/ide/plugins/com.nxp.mcuxpresso.tools.macosx_11.7.0.202209140929/tools/bin/../lib/gcc/arm-none-eabi/10.3.1/../../../../arm-none-eabi/lib/thumb/v7e-m+fp/hard/libcr_c.a(_writebuf.o)
 .bss           0x0000000000000000        0x0 /Applications/MCUXpressoIDE_11.7.0_9198/ide/plugins/com.nxp.mcuxpresso.tools.macosx_11.7.0.202209140929/tools/bin/../lib/gcc/arm-none-eabi/10.3.1/../../../../arm-none-eabi/lib/thumb/v7e-m+fp/hard/libcr_c.a(_writebuf.o)
 .text          0x0000000000000000        0x0 /Applications/MCUXpressoIDE_11.7.0_9198/ide/plugins/com.nxp.mcuxpresso.tools.macosx_11.7.0.202209140929/tools/bin/../lib/gcc/arm-none-eabi/10.3.1/../../../../arm-none-eabi/lib/thumb/v7e-m+fp/hard/libcr_c.a(ctype.o)
 .data          0x0000000000000000        0x0 /Applications/MCUXpressoIDE_11.7.0_9198/ide/plugins/com.nxp.mcuxpresso.tools.macosx_11.7.0.202209140929/tools/bin/../lib/gcc/arm-none-eabi/10.3.1/../../../../arm-none-eabi/lib/thumb/v7e-m+fp/hard/libcr_c.a(ctype.o)
 .bss           0x0000000000000000        0x0 /Applications/MCUXpressoIDE_11.7.0_9198/ide/plugins/com.nxp.mcuxpresso.tools.macosx_11.7.0.202209140929/tools/bin/../lib/gcc/arm-none-eabi/10.3.1/../../../../arm-none-eabi/lib/thumb/v7e-m+fp/hard/libcr_c.a(ctype.o)
 .text.isalnum  0x0000000000000000       0x14 /Applications/MCUXpressoIDE_11.7.0_9198/ide/plugins/com.nxp.mcuxpresso.tools.macosx_11.7.0.202209140929/tools/bin/../lib/gcc/arm-none-eabi/10.3.1/../../../../arm-none-eabi/lib/thumb/v7e-m+fp/hard/libcr_c.a(ctype.o)
 .text.isalpha  0x0000000000000000       0x14 /Applications/MCUXpressoIDE_11.7.0_9198/ide/plugins/com.nxp.mcuxpresso.tools.macosx_11.7.0.202209140929/tools/bin/../lib/gcc/arm-none-eabi/10.3.1/../../../../arm-none-eabi/lib/thumb/v7e-m+fp/hard/libcr_c.a(ctype.o)
 .text.iscntrl  0x0000000000000000       0x14 /Applications/MCUXpressoIDE_11.7.0_9198/ide/plugins/com.nxp.mcuxpresso.tools.macosx_11.7.0.202209140929/tools/bin/../lib/gcc/arm-none-eabi/10.3.1/../../../../arm-none-eabi/lib/thumb/v7e-m+fp/hard/libcr_c.a(ctype.o)
 .text.isdigit  0x0000000000000000       0x14 /Applications/MCUXpressoIDE_11.7.0_9198/ide/plugins/com.nxp.mcuxpresso.tools.macosx_11.7.0.202209140929/tools/bin/../lib/gcc/arm-none-eabi/10.3.1/../../../../arm-none-eabi/lib/thumb/v7e-m+fp/hard/libcr_c.a(ctype.o)
 .text.isgraph  0x0000000000000000       0x14 /Applications/MCUXpressoIDE_11.7.0_9198/ide/plugins/com.nxp.mcuxpresso.tools.macosx_11.7.0.202209140929/tools/bin/../lib/gcc/arm-none-eabi/10.3.1/../../../../arm-none-eabi/lib/thumb/v7e-m+fp/hard/libcr_c.a(ctype.o)
 .text.islower  0x0000000000000000       0x14 /Applications/MCUXpressoIDE_11.7.0_9198/ide/plugins/com.nxp.mcuxpresso.tools.macosx_11.7.0.202209140929/tools/bin/../lib/gcc/arm-none-eabi/10.3.1/../../../../arm-none-eabi/lib/thumb/v7e-m+fp/hard/libcr_c.a(ctype.o)
 .text.isprint  0x0000000000000000       0x14 /Applications/MCUXpressoIDE_11.7.0_9198/ide/plugins/com.nxp.mcuxpresso.tools.macosx_11.7.0.202209140929/tools/bin/../lib/gcc/arm-none-eabi/10.3.1/../../../../arm-none-eabi/lib/thumb/v7e-m+fp/hard/libcr_c.a(ctype.o)
 .text.ispunct  0x0000000000000000       0x14 /Applications/MCUXpressoIDE_11.7.0_9198/ide/plugins/com.nxp.mcuxpresso.tools.macosx_11.7.0.202209140929/tools/bin/../lib/gcc/arm-none-eabi/10.3.1/../../../../arm-none-eabi/lib/thumb/v7e-m+fp/hard/libcr_c.a(ctype.o)
 .text.isspace  0x0000000000000000       0x14 /Applications/MCUXpressoIDE_11.7.0_9198/ide/plugins/com.nxp.mcuxpresso.tools.macosx_11.7.0.202209140929/tools/bin/../lib/gcc/arm-none-eabi/10.3.1/../../../../arm-none-eabi/lib/thumb/v7e-m+fp/hard/libcr_c.a(ctype.o)
 .text.isupper  0x0000000000000000       0x14 /Applications/MCUXpressoIDE_11.7.0_9198/ide/plugins/com.nxp.mcuxpresso.tools.macosx_11.7.0.202209140929/tools/bin/../lib/gcc/arm-none-eabi/10.3.1/../../../../arm-none-eabi/lib/thumb/v7e-m+fp/hard/libcr_c.a(ctype.o)
 .text.isxdigit
                0x0000000000000000       0x14 /Applications/MCUXpressoIDE_11.7.0_9198/ide/plugins/com.nxp.mcuxpresso.tools.macosx_11.7.0.202209140929/tools/bin/../lib/gcc/arm-none-eabi/10.3.1/../../../../arm-none-eabi/lib/thumb/v7e-m+fp/hard/libcr_c.a(ctype.o)
 .text.tolower  0x0000000000000000       0x14 /Applications/MCUXpressoIDE_11.7.0_9198/ide/plugins/com.nxp.mcuxpresso.tools.macosx_11.7.0.202209140929/tools/bin/../lib/gcc/arm-none-eabi/10.3.1/../../../../arm-none-eabi/lib/thumb/v7e-m+fp/hard/libcr_c.a(ctype.o)
 .text.toupper  0x0000000000000000       0x14 /Applications/MCUXpressoIDE_11.7.0_9198/ide/plugins/com.nxp.mcuxpresso.tools.macosx_11.7.0.202209140929/tools/bin/../lib/gcc/arm-none-eabi/10.3.1/../../../../arm-none-eabi/lib/thumb/v7e-m+fp/hard/libcr_c.a(ctype.o)
 .rodata.__ctype
                0x0000000000000000      0x180 /Applications/MCUXpressoIDE_11.7.0_9198/ide/plugins/com.nxp.mcuxpresso.tools.macosx_11.7.0.202209140929/tools/bin/../lib/gcc/arm-none-eabi/10.3.1/../../../../arm-none-eabi/lib/thumb/v7e-m+fp/hard/libcr_c.a(ctype.o)
 .comment       0x0000000000000000       0x4a /Applications/MCUXpressoIDE_11.7.0_9198/ide/plugins/com.nxp.mcuxpresso.tools.macosx_11.7.0.202209140929/tools/bin/../lib/gcc/arm-none-eabi/10.3.1/../../../../arm-none-eabi/lib/thumb/v7e-m+fp/hard/libcr_c.a(ctype.o)
 .ARM.attributes
                0x0000000000000000       0x34 /Applications/MCUXpressoIDE_11.7.0_9198/ide/plugins/com.nxp.mcuxpresso.tools.macosx_11.7.0.202209140929/tools/bin/../lib/gcc/arm-none-eabi/10.3.1/../../../../arm-none-eabi/lib/thumb/v7e-m+fp/hard/libcr_c.a(ctype.o)
 .text          0x0000000000000000        0x0 /Applications/MCUXpressoIDE_11.7.0_9198/ide/plugins/com.nxp.mcuxpresso.tools.macosx_11.7.0.202209140929/tools/bin/../lib/gcc/arm-none-eabi/10.3.1/../../../../arm-none-eabi/lib/thumb/v7e-m+fp/hard/libcr_c.a(fclose.o)
 .data          0x0000000000000000        0x0 /Applications/MCUXpressoIDE_11.7.0_9198/ide/plugins/com.nxp.mcuxpresso.tools.macosx_11.7.0.202209140929/tools/bin/../lib/gcc/arm-none-eabi/10.3.1/../../../../arm-none-eabi/lib/thumb/v7e-m+fp/hard/libcr_c.a(fclose.o)
 .bss           0x0000000000000000        0x0 /Applications/MCUXpressoIDE_11.7.0_9198/ide/plugins/com.nxp.mcuxpresso.tools.macosx_11.7.0.202209140929/tools/bin/../lib/gcc/arm-none-eabi/10.3.1/../../../../arm-none-eabi/lib/thumb/v7e-m+fp/hard/libcr_c.a(fclose.o)
 .text          0x0000000000000000        0x0 /Applications/MCUXpressoIDE_11.7.0_9198/ide/plugins/com.nxp.mcuxpresso.tools.macosx_11.7.0.202209140929/tools/bin/../lib/gcc/arm-none-eabi/10.3.1/../../../../arm-none-eabi/lib/thumb/v7e-m+fp/hard/libcr_c.a(fflush.o)
 .data          0x0000000000000000        0x0 /Applications/MCUXpressoIDE_11.7.0_9198/ide/plugins/com.nxp.mcuxpresso.tools.macosx_11.7.0.202209140929/tools/bin/../lib/gcc/arm-none-eabi/10.3.1/../../../../arm-none-eabi/lib/thumb/v7e-m+fp/hard/libcr_c.a(fflush.o)
 .bss           0x0000000000000000        0x0 /Applications/MCUXpressoIDE_11.7.0_9198/ide/plugins/com.nxp.mcuxpresso.tools.macosx_11.7.0.202209140929/tools/bin/../lib/gcc/arm-none-eabi/10.3.1/../../../../arm-none-eabi/lib/thumb/v7e-m+fp/hard/libcr_c.a(fflush.o)
 .text          0x0000000000000000        0x0 /Applications/MCUXpressoIDE_11.7.0_9198/ide/plugins/com.nxp.mcuxpresso.tools.macosx_11.7.0.202209140929/tools/bin/../lib/gcc/arm-none-eabi/10.3.1/../../../../arm-none-eabi/lib/thumb/v7e-m+fp/hard/libcr_c.a(fseek.o)
 .data          0x0000000000000000        0x0 /Applications/MCUXpressoIDE_11.7.0_9198/ide/plugins/com.nxp.mcuxpresso.tools.macosx_11.7.0.202209140929/tools/bin/../lib/gcc/arm-none-eabi/10.3.1/../../../../arm-none-eabi/lib/thumb/v7e-m+fp/hard/libcr_c.a(fseek.o)
 .bss           0x0000000000000000        0x0 /Applications/MCUXpressoIDE_11.7.0_9198/ide/plugins/com.nxp.mcuxpresso.tools.macosx_11.7.0.202209140929/tools/bin/../lib/gcc/arm-none-eabi/10.3.1/../../../../arm-none-eabi/lib/thumb/v7e-m+fp/hard/libcr_c.a(fseek.o)
 .text          0x0000000000000000        0x0 /Applications/MCUXpressoIDE_11.7.0_9198/ide/plugins/com.nxp.mcuxpresso.tools.macosx_11.7.0.202209140929/tools/bin/../lib/gcc/arm-none-eabi/10.3.1/../../../../arm-none-eabi/lib/thumb/v7e-m+fp/hard/libcr_c.a(ftell.o)
 .data          0x0000000000000000        0x0 /Applications/MCUXpressoIDE_11.7.0_9198/ide/plugins/com.nxp.mcuxpresso.tools.macosx_11.7.0.202209140929/tools/bin/../lib/gcc/arm-none-eabi/10.3.1/../../../../arm-none-eabi/lib/thumb/v7e-m+fp/hard/libcr_c.a(ftell.o)
 .bss           0x0000000000000000        0x0 /Applications/MCUXpressoIDE_11.7.0_9198/ide/plugins/com.nxp.mcuxpresso.tools.macosx_11.7.0.202209140929/tools/bin/../lib/gcc/arm-none-eabi/10.3.1/../../../../arm-none-eabi/lib/thumb/v7e-m+fp/hard/libcr_c.a(ftell.o)
 .text          0x0000000000000000        0x0 /Applications/MCUXpressoIDE_11.7.0_9198/ide/plugins/com.nxp.mcuxpresso.tools.macosx_11.7.0.202209140929/tools/bin/../lib/gcc/arm-none-eabi/10.3.1/../../../../arm-none-eabi/lib/thumb/v7e-m+fp/hard/libcr_c.a(remove.o)
 .data          0x0000000000000000        0x0 /Applications/MCUXpressoIDE_11.7.0_9198/ide/plugins/com.nxp.mcuxpresso.tools.macosx_11.7.0.202209140929/tools/bin/../lib/gcc/arm-none-eabi/10.3.1/../../../../arm-none-eabi/lib/thumb/v7e-m+fp/hard/libcr_c.a(remove.o)
 .bss           0x0000000000000000        0x0 /Applications/MCUXpressoIDE_11.7.0_9198/ide/plugins/com.nxp.mcuxpresso.tools.macosx_11.7.0.202209140929/tools/bin/../lib/gcc/arm-none-eabi/10.3.1/../../../../arm-none-eabi/lib/thumb/v7e-m+fp/hard/libcr_c.a(remove.o)
 .text.rename   0x0000000000000000       0x2a /Applications/MCUXpressoIDE_11.7.0_9198/ide/plugins/com.nxp.mcuxpresso.tools.macosx_11.7.0.202209140929/tools/bin/../lib/gcc/arm-none-eabi/10.3.1/../../../../arm-none-eabi/lib/thumb/v7e-m+fp/hard/libcr_c.a(remove.o)
 .text          0x0000000000000000        0x0 /Applications/MCUXpressoIDE_11.7.0_9198/ide/plugins/com.nxp.mcuxpresso.tools.macosx_11.7.0.202209140929/tools/bin/../lib/gcc/arm-none-eabi/10.3.1/../../../../arm-none-eabi/lib/thumb/v7e-m+fp/hard/libcr_c.a(_cr_check_heap.o)
 .data          0x0000000000000000        0x0 /Applications/MCUXpressoIDE_11.7.0_9198/ide/plugins/com.nxp.mcuxpresso.tools.macosx_11.7.0.202209140929/tools/bin/../lib/gcc/arm-none-eabi/10.3.1/../../../../arm-none-eabi/lib/thumb/v7e-m+fp/hard/libcr_c.a(_cr_check_heap.o)
 .bss           0x0000000000000000        0x0 /Applications/MCUXpressoIDE_11.7.0_9198/ide/plugins/com.nxp.mcuxpresso.tools.macosx_11.7.0.202209140929/tools/bin/../lib/gcc/arm-none-eabi/10.3.1/../../../../arm-none-eabi/lib/thumb/v7e-m+fp/hard/libcr_c.a(_cr_check_heap.o)
 .text.__check_heap_overflow
                0x0000000000000000       0x18 /Applications/MCUXpressoIDE_11.7.0_9198/ide/plugins/com.nxp.mcuxpresso.tools.macosx_11.7.0.202209140929/tools/bin/../lib/gcc/arm-none-eabi/10.3.1/../../../../arm-none-eabi/lib/thumb/v7e-m+fp/hard/libcr_c.a(_cr_check_heap.o)
 .comment       0x0000000000000000       0x4a /Applications/MCUXpressoIDE_11.7.0_9198/ide/plugins/com.nxp.mcuxpresso.tools.macosx_11.7.0.202209140929/tools/bin/../lib/gcc/arm-none-eabi/10.3.1/../../../../arm-none-eabi/lib/thumb/v7e-m+fp/hard/libcr_c.a(_cr_check_heap.o)
 .ARM.attributes
                0x0000000000000000       0x34 /Applications/MCUXpressoIDE_11.7.0_9198/ide/plugins/com.nxp.mcuxpresso.tools.macosx_11.7.0.202209140929/tools/bin/../lib/gcc/arm-none-eabi/10.3.1/../../../../arm-none-eabi/lib/thumb/v7e-m+fp/hard/libcr_c.a(_cr_check_heap.o)
 .text          0x0000000000000000        0x0 /Applications/MCUXpressoIDE_11.7.0_9198/ide/plugins/com.nxp.mcuxpresso.tools.macosx_11.7.0.202209140929/tools/bin/../lib/gcc/arm-none-eabi/10.3.1/../../../../arm-none-eabi/lib/thumb/v7e-m+fp/hard/libcr_c.a(_do_fflush.o)
 .data          0x0000000000000000        0x0 /Applications/MCUXpressoIDE_11.7.0_9198/ide/plugins/com.nxp.mcuxpresso.tools.macosx_11.7.0.202209140929/tools/bin/../lib/gcc/arm-none-eabi/10.3.1/../../../../arm-none-eabi/lib/thumb/v7e-m+fp/hard/libcr_c.a(_do_fflush.o)
 .bss           0x0000000000000000        0x0 /Applications/MCUXpressoIDE_11.7.0_9198/ide/plugins/com.nxp.mcuxpresso.tools.macosx_11.7.0.202209140929/tools/bin/../lib/gcc/arm-none-eabi/10.3.1/../../../../arm-none-eabi/lib/thumb/v7e-m+fp/hard/libcr_c.a(_do_fflush.o)
 .text          0x0000000000000000        0x0 /Applications/MCUXpressoIDE_11.7.0_9198/ide/plugins/com.nxp.mcuxpresso.tools.macosx_11.7.0.202209140929/tools/bin/../lib/gcc/arm-none-eabi/10.3.1/thumb/v7e-m+fp/hard/libcr_eabihelpers.a(division_64.o)
 .data          0x0000000000000000        0x0 /Applications/MCUXpressoIDE_11.7.0_9198/ide/plugins/com.nxp.mcuxpresso.tools.macosx_11.7.0.202209140929/tools/bin/../lib/gcc/arm-none-eabi/10.3.1/thumb/v7e-m+fp/hard/libcr_eabihelpers.a(division_64.o)
 .bss           0x0000000000000000        0x0 /Applications/MCUXpressoIDE_11.7.0_9198/ide/plugins/com.nxp.mcuxpresso.tools.macosx_11.7.0.202209140929/tools/bin/../lib/gcc/arm-none-eabi/10.3.1/thumb/v7e-m+fp/hard/libcr_eabihelpers.a(division_64.o)
 .text.__aeabi_division_ldivmod
                0x0000000000000000       0x26 /Applications/MCUXpressoIDE_11.7.0_9198/ide/plugins/com.nxp.mcuxpresso.tools.macosx_11.7.0.202209140929/tools/bin/../lib/gcc/arm-none-eabi/10.3.1/thumb/v7e-m+fp/hard/libcr_eabihelpers.a(division_64.o)
 .text          0x0000000000000000        0x0 /Applications/MCUXpressoIDE_11.7.0_9198/ide/plugins/com.nxp.mcuxpresso.tools.macosx_11.7.0.202209140929/tools/bin/../lib/gcc/arm-none-eabi/10.3.1/thumb/v7e-m+fp/hard/libcr_eabihelpers.a(division_idiv0.o)
 .data          0x0000000000000000        0x0 /Applications/MCUXpressoIDE_11.7.0_9198/ide/plugins/com.nxp.mcuxpresso.tools.macosx_11.7.0.202209140929/tools/bin/../lib/gcc/arm-none-eabi/10.3.1/thumb/v7e-m+fp/hard/libcr_eabihelpers.a(division_idiv0.o)
 .bss           0x0000000000000000        0x0 /Applications/MCUXpressoIDE_11.7.0_9198/ide/plugins/com.nxp.mcuxpresso.tools.macosx_11.7.0.202209140929/tools/bin/../lib/gcc/arm-none-eabi/10.3.1/thumb/v7e-m+fp/hard/libcr_eabihelpers.a(division_idiv0.o)
 .text          0x0000000000000000        0x0 /Applications/MCUXpressoIDE_11.7.0_9198/ide/plugins/com.nxp.mcuxpresso.tools.macosx_11.7.0.202209140929/tools/bin/../lib/gcc/arm-none-eabi/10.3.1/thumb/v7e-m+fp/hard/libcr_eabihelpers.a(double.o)
 .data          0x0000000000000000        0x0 /Applications/MCUXpressoIDE_11.7.0_9198/ide/plugins/com.nxp.mcuxpresso.tools.macosx_11.7.0.202209140929/tools/bin/../lib/gcc/arm-none-eabi/10.3.1/thumb/v7e-m+fp/hard/libcr_eabihelpers.a(double.o)
 .bss           0x0000000000000000        0x0 /Applications/MCUXpressoIDE_11.7.0_9198/ide/plugins/com.nxp.mcuxpresso.tools.macosx_11.7.0.202209140929/tools/bin/../lib/gcc/arm-none-eabi/10.3.1/thumb/v7e-m+fp/hard/libcr_eabihelpers.a(double.o)
 .text.__aeabi_drsub
                0x0000000000000000       0x18 /Applications/MCUXpressoIDE_11.7.0_9198/ide/plugins/com.nxp.mcuxpresso.tools.macosx_11.7.0.202209140929/tools/bin/../lib/gcc/arm-none-eabi/10.3.1/thumb/v7e-m+fp/hard/libcr_eabihelpers.a(double.o)
 .text.__aeabi_dneg
                0x0000000000000000        0xa /Applications/MCUXpressoIDE_11.7.0_9198/ide/plugins/com.nxp.mcuxpresso.tools.macosx_11.7.0.202209140929/tools/bin/../lib/gcc/arm-none-eabi/10.3.1/thumb/v7e-m+fp/hard/libcr_eabihelpers.a(double.o)
 .text.__aeabi_d2f
                0x0000000000000000       0x58 /Applications/MCUXpressoIDE_11.7.0_9198/ide/plugins/com.nxp.mcuxpresso.tools.macosx_11.7.0.202209140929/tools/bin/../lib/gcc/arm-none-eabi/10.3.1/thumb/v7e-m+fp/hard/libcr_eabihelpers.a(double.o)
 .text.__aeabi_d2iz
                0x0000000000000000       0x40 /Applications/MCUXpressoIDE_11.7.0_9198/ide/plugins/com.nxp.mcuxpresso.tools.macosx_11.7.0.202209140929/tools/bin/../lib/gcc/arm-none-eabi/10.3.1/thumb/v7e-m+fp/hard/libcr_eabihelpers.a(double.o)
 .text.__aeabi_d2lz
                0x0000000000000000       0x74 /Applications/MCUXpressoIDE_11.7.0_9198/ide/plugins/com.nxp.mcuxpresso.tools.macosx_11.7.0.202209140929/tools/bin/../lib/gcc/arm-none-eabi/10.3.1/thumb/v7e-m+fp/hard/libcr_eabihelpers.a(double.o)
 .text.__aeabi_d2ulz
                0x0000000000000000       0x58 /Applications/MCUXpressoIDE_11.7.0_9198/ide/plugins/com.nxp.mcuxpresso.tools.macosx_11.7.0.202209140929/tools/bin/../lib/gcc/arm-none-eabi/10.3.1/thumb/v7e-m+fp/hard/libcr_eabihelpers.a(double.o)
 .text.__bhs_ul2d
                0x0000000000000000       0x8a /Applications/MCUXpressoIDE_11.7.0_9198/ide/plugins/com.nxp.mcuxpresso.tools.macosx_11.7.0.202209140929/tools/bin/../lib/gcc/arm-none-eabi/10.3.1/thumb/v7e-m+fp/hard/libcr_eabihelpers.a(double.o)
 .text.__aeabi_i2d
                0x0000000000000000       0x12 /Applications/MCUXpressoIDE_11.7.0_9198/ide/plugins/com.nxp.mcuxpresso.tools.macosx_11.7.0.202209140929/tools/bin/../lib/gcc/arm-none-eabi/10.3.1/thumb/v7e-m+fp/hard/libcr_eabihelpers.a(double.o)
 .text.__aeabi_l2d
                0x0000000000000000       0x1c /Applications/MCUXpressoIDE_11.7.0_9198/ide/plugins/com.nxp.mcuxpresso.tools.macosx_11.7.0.202209140929/tools/bin/../lib/gcc/arm-none-eabi/10.3.1/thumb/v7e-m+fp/hard/libcr_eabihelpers.a(double.o)
 .text.__aeabi_ul2d
                0x0000000000000000        0x8 /Applications/MCUXpressoIDE_11.7.0_9198/ide/plugins/com.nxp.mcuxpresso.tools.macosx_11.7.0.202209140929/tools/bin/../lib/gcc/arm-none-eabi/10.3.1/thumb/v7e-m+fp/hard/libcr_eabihelpers.a(double.o)
 .text.__aeabi_dcmpeq
                0x0000000000000000       0x30 /Applications/MCUXpressoIDE_11.7.0_9198/ide/plugins/com.nxp.mcuxpresso.tools.macosx_11.7.0.202209140929/tools/bin/../lib/gcc/arm-none-eabi/10.3.1/thumb/v7e-m+fp/hard/libcr_eabihelpers.a(double.o)
 .text.__aeabi_dcmplt
                0x0000000000000000       0x56 /Applications/MCUXpressoIDE_11.7.0_9198/ide/plugins/com.nxp.mcuxpresso.tools.macosx_11.7.0.202209140929/tools/bin/../lib/gcc/arm-none-eabi/10.3.1/thumb/v7e-m+fp/hard/libcr_eabihelpers.a(double.o)
 .text.__aeabi_dcmpgt
                0x0000000000000000       0x56 /Applications/MCUXpressoIDE_11.7.0_9198/ide/plugins/com.nxp.mcuxpresso.tools.macosx_11.7.0.202209140929/tools/bin/../lib/gcc/arm-none-eabi/10.3.1/thumb/v7e-m+fp/hard/libcr_eabihelpers.a(double.o)
 .text.__aeabi_dcmple
                0x0000000000000000       0x56 /Applications/MCUXpressoIDE_11.7.0_9198/ide/plugins/com.nxp.mcuxpresso.tools.macosx_11.7.0.202209140929/tools/bin/../lib/gcc/arm-none-eabi/10.3.1/thumb/v7e-m+fp/hard/libcr_eabihelpers.a(double.o)
 .text.__aeabi_dcmpge
                0x0000000000000000       0x56 /Applications/MCUXpressoIDE_11.7.0_9198/ide/plugins/com.nxp.mcuxpresso.tools.macosx_11.7.0.202209140929/tools/bin/../lib/gcc/arm-none-eabi/10.3.1/thumb/v7e-m+fp/hard/libcr_eabihelpers.a(double.o)
 .text.__aeabi_dcmpun
                0x0000000000000000       0x1a /Applications/MCUXpressoIDE_11.7.0_9198/ide/plugins/com.nxp.mcuxpresso.tools.macosx_11.7.0.202209140929/tools/bin/../lib/gcc/arm-none-eabi/10.3.1/thumb/v7e-m+fp/hard/libcr_eabihelpers.a(double.o)
 .text.__aeabi_cdcmple
                0x0000000000000000       0x2c /Applications/MCUXpressoIDE_11.7.0_9198/ide/plugins/com.nxp.mcuxpresso.tools.macosx_11.7.0.202209140929/tools/bin/../lib/gcc/arm-none-eabi/10.3.1/thumb/v7e-m+fp/hard/libcr_eabihelpers.a(double.o)
 .text.__aeabi_cdrcmple
                0x0000000000000000       0x14 /Applications/MCUXpressoIDE_11.7.0_9198/ide/plugins/com.nxp.mcuxpresso.tools.macosx_11.7.0.202209140929/tools/bin/../lib/gcc/arm-none-eabi/10.3.1/thumb/v7e-m+fp/hard/libcr_eabihelpers.a(double.o)
 .text          0x0000000000000000        0x0 /Applications/MCUXpressoIDE_11.7.0_9198/ide/plugins/com.nxp.mcuxpresso.tools.macosx_11.7.0.202209140929/tools/bin/../lib/gcc/arm-none-eabi/10.3.1/thumb/v7e-m+fp/hard/libcr_eabihelpers.a(memcpy.o)
 .data          0x0000000000000000        0x0 /Applications/MCUXpressoIDE_11.7.0_9198/ide/plugins/com.nxp.mcuxpresso.tools.macosx_11.7.0.202209140929/tools/bin/../lib/gcc/arm-none-eabi/10.3.1/thumb/v7e-m+fp/hard/libcr_eabihelpers.a(memcpy.o)
 .bss           0x0000000000000000        0x0 /Applications/MCUXpressoIDE_11.7.0_9198/ide/plugins/com.nxp.mcuxpresso.tools.macosx_11.7.0.202209140929/tools/bin/../lib/gcc/arm-none-eabi/10.3.1/thumb/v7e-m+fp/hard/libcr_eabihelpers.a(memcpy.o)
 .text.__aeabi_memmove
                0x0000000000000000       0x1c /Applications/MCUXpressoIDE_11.7.0_9198/ide/plugins/com.nxp.mcuxpresso.tools.macosx_11.7.0.202209140929/tools/bin/../lib/gcc/arm-none-eabi/10.3.1/thumb/v7e-m+fp/hard/libcr_eabihelpers.a(memcpy.o)
 .text.__aeabi_memclr
                0x0000000000000000        0x8 /Applications/MCUXpressoIDE_11.7.0_9198/ide/plugins/com.nxp.mcuxpresso.tools.macosx_11.7.0.202209140929/tools/bin/../lib/gcc/arm-none-eabi/10.3.1/thumb/v7e-m+fp/hard/libcr_eabihelpers.a(memcpy.o)
 .text.__aeabi_memset
                0x0000000000000000        0xa /Applications/MCUXpressoIDE_11.7.0_9198/ide/plugins/com.nxp.mcuxpresso.tools.macosx_11.7.0.202209140929/tools/bin/../lib/gcc/arm-none-eabi/10.3.1/thumb/v7e-m+fp/hard/libcr_eabihelpers.a(memcpy.o)
 .text          0x0000000000000000        0x0 /Applications/MCUXpressoIDE_11.7.0_9198/ide/plugins/com.nxp.mcuxpresso.tools.macosx_11.7.0.202209140929/tools/bin/../lib/gcc/arm-none-eabi/10.3.1/../../../../arm-none-eabi/lib/thumb/v7e-m+fp/hard/libcr_nohost_nf.a(__ciob.o)
 .data          0x0000000000000000        0x0 /Applications/MCUXpressoIDE_11.7.0_9198/ide/plugins/com.nxp.mcuxpresso.tools.macosx_11.7.0.202209140929/tools/bin/../lib/gcc/arm-none-eabi/10.3.1/../../../../arm-none-eabi/lib/thumb/v7e-m+fp/hard/libcr_nohost_nf.a(__ciob.o)
 .bss           0x0000000000000000        0x0 /Applications/MCUXpressoIDE_11.7.0_9198/ide/plugins/com.nxp.mcuxpresso.tools.macosx_11.7.0.202209140929/tools/bin/../lib/gcc/arm-none-eabi/10.3.1/../../../../arm-none-eabi/lib/thumb/v7e-m+fp/hard/libcr_nohost_nf.a(__ciob.o)
 .text          0x0000000000000000        0x0 /Applications/MCUXpressoIDE_11.7.0_9198/ide/plugins/com.nxp.mcuxpresso.tools.macosx_11.7.0.202209140929/tools/bin/../lib/gcc/arm-none-eabi/10.3.1/../../../../arm-none-eabi/lib/thumb/v7e-m+fp/hard/libcr_nohost_nf.a(__sys_appexit.o)
 .data          0x0000000000000000        0x0 /Applications/MCUXpressoIDE_11.7.0_9198/ide/plugins/com.nxp.mcuxpresso.tools.macosx_11.7.0.202209140929/tools/bin/../lib/gcc/arm-none-eabi/10.3.1/../../../../arm-none-eabi/lib/thumb/v7e-m+fp/hard/libcr_nohost_nf.a(__sys_appexit.o)
 .bss           0x0000000000000000        0x0 /Applications/MCUXpressoIDE_11.7.0_9198/ide/plugins/com.nxp.mcuxpresso.tools.macosx_11.7.0.202209140929/tools/bin/../lib/gcc/arm-none-eabi/10.3.1/../../../../arm-none-eabi/lib/thumb/v7e-m+fp/hard/libcr_nohost_nf.a(__sys_appexit.o)
 .text.__sys_appexit
                0x0000000000000000        0x2 /Applications/MCUXpressoIDE_11.7.0_9198/ide/plugins/com.nxp.mcuxpresso.tools.macosx_11.7.0.202209140929/tools/bin/../lib/gcc/arm-none-eabi/10.3.1/../../../../arm-none-eabi/lib/thumb/v7e-m+fp/hard/libcr_nohost_nf.a(__sys_appexit.o)
 .comment       0x0000000000000000       0x4a /Applications/MCUXpressoIDE_11.7.0_9198/ide/plugins/com.nxp.mcuxpresso.tools.macosx_11.7.0.202209140929/tools/bin/../lib/gcc/arm-none-eabi/10.3.1/../../../../arm-none-eabi/lib/thumb/v7e-m+fp/hard/libcr_nohost_nf.a(__sys_appexit.o)
 .ARM.attributes
                0x0000000000000000       0x34 /Applications/MCUXpressoIDE_11.7.0_9198/ide/plugins/com.nxp.mcuxpresso.tools.macosx_11.7.0.202209140929/tools/bin/../lib/gcc/arm-none-eabi/10.3.1/../../../../arm-none-eabi/lib/thumb/v7e-m+fp/hard/libcr_nohost_nf.a(__sys_appexit.o)
 .text          0x0000000000000000        0x0 /Applications/MCUXpressoIDE_11.7.0_9198/ide/plugins/com.nxp.mcuxpresso.tools.macosx_11.7.0.202209140929/tools/bin/../lib/gcc/arm-none-eabi/10.3.1/../../../../arm-none-eabi/lib/thumb/v7e-m+fp/hard/libcr_nohost_nf.a(__sys_close.o)
 .data          0x0000000000000000        0x0 /Applications/MCUXpressoIDE_11.7.0_9198/ide/plugins/com.nxp.mcuxpresso.tools.macosx_11.7.0.202209140929/tools/bin/../lib/gcc/arm-none-eabi/10.3.1/../../../../arm-none-eabi/lib/thumb/v7e-m+fp/hard/libcr_nohost_nf.a(__sys_close.o)
 .bss           0x0000000000000000        0x0 /Applications/MCUXpressoIDE_11.7.0_9198/ide/plugins/com.nxp.mcuxpresso.tools.macosx_11.7.0.202209140929/tools/bin/../lib/gcc/arm-none-eabi/10.3.1/../../../../arm-none-eabi/lib/thumb/v7e-m+fp/hard/libcr_nohost_nf.a(__sys_close.o)
 .text          0x0000000000000000        0x0 /Applications/MCUXpressoIDE_11.7.0_9198/ide/plugins/com.nxp.mcuxpresso.tools.macosx_11.7.0.202209140929/tools/bin/../lib/gcc/arm-none-eabi/10.3.1/../../../../arm-none-eabi/lib/thumb/v7e-m+fp/hard/libcr_nohost_nf.a(__sys_flen.o)
 .data          0x0000000000000000        0x0 /Applications/MCUXpressoIDE_11.7.0_9198/ide/plugins/com.nxp.mcuxpresso.tools.macosx_11.7.0.202209140929/tools/bin/../lib/gcc/arm-none-eabi/10.3.1/../../../../arm-none-eabi/lib/thumb/v7e-m+fp/hard/libcr_nohost_nf.a(__sys_flen.o)
 .bss           0x0000000000000000        0x0 /Applications/MCUXpressoIDE_11.7.0_9198/ide/plugins/com.nxp.mcuxpresso.tools.macosx_11.7.0.202209140929/tools/bin/../lib/gcc/arm-none-eabi/10.3.1/../../../../arm-none-eabi/lib/thumb/v7e-m+fp/hard/libcr_nohost_nf.a(__sys_flen.o)
 .text          0x0000000000000000        0x0 /Applications/MCUXpressoIDE_11.7.0_9198/ide/plugins/com.nxp.mcuxpresso.tools.macosx_11.7.0.202209140929/tools/bin/../lib/gcc/arm-none-eabi/10.3.1/../../../../arm-none-eabi/lib/thumb/v7e-m+fp/hard/libcr_nohost_nf.a(__sys_istty.o)
 .data          0x0000000000000000        0x0 /Applications/MCUXpressoIDE_11.7.0_9198/ide/plugins/com.nxp.mcuxpresso.tools.macosx_11.7.0.202209140929/tools/bin/../lib/gcc/arm-none-eabi/10.3.1/../../../../arm-none-eabi/lib/thumb/v7e-m+fp/hard/libcr_nohost_nf.a(__sys_istty.o)
 .bss           0x0000000000000000        0x0 /Applications/MCUXpressoIDE_11.7.0_9198/ide/plugins/com.nxp.mcuxpresso.tools.macosx_11.7.0.202209140929/tools/bin/../lib/gcc/arm-none-eabi/10.3.1/../../../../arm-none-eabi/lib/thumb/v7e-m+fp/hard/libcr_nohost_nf.a(__sys_istty.o)
 .text          0x0000000000000000        0x0 /Applications/MCUXpressoIDE_11.7.0_9198/ide/plugins/com.nxp.mcuxpresso.tools.macosx_11.7.0.202209140929/tools/bin/../lib/gcc/arm-none-eabi/10.3.1/../../../../arm-none-eabi/lib/thumb/v7e-m+fp/hard/libcr_nohost_nf.a(__sys_read.o)
 .data          0x0000000000000000        0x0 /Applications/MCUXpressoIDE_11.7.0_9198/ide/plugins/com.nxp.mcuxpresso.tools.macosx_11.7.0.202209140929/tools/bin/../lib/gcc/arm-none-eabi/10.3.1/../../../../arm-none-eabi/lib/thumb/v7e-m+fp/hard/libcr_nohost_nf.a(__sys_read.o)
 .bss           0x0000000000000000        0x0 /Applications/MCUXpressoIDE_11.7.0_9198/ide/plugins/com.nxp.mcuxpresso.tools.macosx_11.7.0.202209140929/tools/bin/../lib/gcc/arm-none-eabi/10.3.1/../../../../arm-none-eabi/lib/thumb/v7e-m+fp/hard/libcr_nohost_nf.a(__sys_read.o)
 .text.__sys_read
                0x0000000000000000        0x4 /Applications/MCUXpressoIDE_11.7.0_9198/ide/plugins/com.nxp.mcuxpresso.tools.macosx_11.7.0.202209140929/tools/bin/../lib/gcc/arm-none-eabi/10.3.1/../../../../arm-none-eabi/lib/thumb/v7e-m+fp/hard/libcr_nohost_nf.a(__sys_read.o)
 .comment       0x0000000000000000       0x4a /Applications/MCUXpressoIDE_11.7.0_9198/ide/plugins/com.nxp.mcuxpresso.tools.macosx_11.7.0.202209140929/tools/bin/../lib/gcc/arm-none-eabi/10.3.1/../../../../arm-none-eabi/lib/thumb/v7e-m+fp/hard/libcr_nohost_nf.a(__sys_read.o)
 .ARM.attributes
                0x0000000000000000       0x34 /Applications/MCUXpressoIDE_11.7.0_9198/ide/plugins/com.nxp.mcuxpresso.tools.macosx_11.7.0.202209140929/tools/bin/../lib/gcc/arm-none-eabi/10.3.1/../../../../arm-none-eabi/lib/thumb/v7e-m+fp/hard/libcr_nohost_nf.a(__sys_read.o)
 .text          0x0000000000000000        0x0 /Applications/MCUXpressoIDE_11.7.0_9198/ide/plugins/com.nxp.mcuxpresso.tools.macosx_11.7.0.202209140929/tools/bin/../lib/gcc/arm-none-eabi/10.3.1/../../../../arm-none-eabi/lib/thumb/v7e-m+fp/hard/libcr_nohost_nf.a(__sys_readc.o)
 .data          0x0000000000000000        0x0 /Applications/MCUXpressoIDE_11.7.0_9198/ide/plugins/com.nxp.mcuxpresso.tools.macosx_11.7.0.202209140929/tools/bin/../lib/gcc/arm-none-eabi/10.3.1/../../../../arm-none-eabi/lib/thumb/v7e-m+fp/hard/libcr_nohost_nf.a(__sys_readc.o)
 .bss           0x0000000000000000        0x0 /Applications/MCUXpressoIDE_11.7.0_9198/ide/plugins/com.nxp.mcuxpresso.tools.macosx_11.7.0.202209140929/tools/bin/../lib/gcc/arm-none-eabi/10.3.1/../../../../arm-none-eabi/lib/thumb/v7e-m+fp/hard/libcr_nohost_nf.a(__sys_readc.o)
 .text.__sys_readc
                0x0000000000000000        0x6 /Applications/MCUXpressoIDE_11.7.0_9198/ide/plugins/com.nxp.mcuxpresso.tools.macosx_11.7.0.202209140929/tools/bin/../lib/gcc/arm-none-eabi/10.3.1/../../../../arm-none-eabi/lib/thumb/v7e-m+fp/hard/libcr_nohost_nf.a(__sys_readc.o)
 .comment       0x0000000000000000       0x4a /Applications/MCUXpressoIDE_11.7.0_9198/ide/plugins/com.nxp.mcuxpresso.tools.macosx_11.7.0.202209140929/tools/bin/../lib/gcc/arm-none-eabi/10.3.1/../../../../arm-none-eabi/lib/thumb/v7e-m+fp/hard/libcr_nohost_nf.a(__sys_readc.o)
 .ARM.attributes
                0x0000000000000000       0x34 /Applications/MCUXpressoIDE_11.7.0_9198/ide/plugins/com.nxp.mcuxpresso.tools.macosx_11.7.0.202209140929/tools/bin/../lib/gcc/arm-none-eabi/10.3.1/../../../../arm-none-eabi/lib/thumb/v7e-m+fp/hard/libcr_nohost_nf.a(__sys_readc.o)
 .text          0x0000000000000000        0x0 /Applications/MCUXpressoIDE_11.7.0_9198/ide/plugins/com.nxp.mcuxpresso.tools.macosx_11.7.0.202209140929/tools/bin/../lib/gcc/arm-none-eabi/10.3.1/../../../../arm-none-eabi/lib/thumb/v7e-m+fp/hard/libcr_nohost_nf.a(__sys_remove.o)
 .data          0x0000000000000000        0x0 /Applications/MCUXpressoIDE_11.7.0_9198/ide/plugins/com.nxp.mcuxpresso.tools.macosx_11.7.0.202209140929/tools/bin/../lib/gcc/arm-none-eabi/10.3.1/../../../../arm-none-eabi/lib/thumb/v7e-m+fp/hard/libcr_nohost_nf.a(__sys_remove.o)
 .bss           0x0000000000000000        0x0 /Applications/MCUXpressoIDE_11.7.0_9198/ide/plugins/com.nxp.mcuxpresso.tools.macosx_11.7.0.202209140929/tools/bin/../lib/gcc/arm-none-eabi/10.3.1/../../../../arm-none-eabi/lib/thumb/v7e-m+fp/hard/libcr_nohost_nf.a(__sys_remove.o)
 .text          0x0000000000000000        0x0 /Applications/MCUXpressoIDE_11.7.0_9198/ide/plugins/com.nxp.mcuxpresso.tools.macosx_11.7.0.202209140929/tools/bin/../lib/gcc/arm-none-eabi/10.3.1/../../../../arm-none-eabi/lib/thumb/v7e-m+fp/hard/libcr_nohost_nf.a(__sys_rename.o)
 .data          0x0000000000000000        0x0 /Applications/MCUXpressoIDE_11.7.0_9198/ide/plugins/com.nxp.mcuxpresso.tools.macosx_11.7.0.202209140929/tools/bin/../lib/gcc/arm-none-eabi/10.3.1/../../../../arm-none-eabi/lib/thumb/v7e-m+fp/hard/libcr_nohost_nf.a(__sys_rename.o)
 .bss           0x0000000000000000        0x0 /Applications/MCUXpressoIDE_11.7.0_9198/ide/plugins/com.nxp.mcuxpresso.tools.macosx_11.7.0.202209140929/tools/bin/../lib/gcc/arm-none-eabi/10.3.1/../../../../arm-none-eabi/lib/thumb/v7e-m+fp/hard/libcr_nohost_nf.a(__sys_rename.o)
 .text.__sys_rename
                0x0000000000000000        0x6 /Applications/MCUXpressoIDE_11.7.0_9198/ide/plugins/com.nxp.mcuxpresso.tools.macosx_11.7.0.202209140929/tools/bin/../lib/gcc/arm-none-eabi/10.3.1/../../../../arm-none-eabi/lib/thumb/v7e-m+fp/hard/libcr_nohost_nf.a(__sys_rename.o)
 .comment       0x0000000000000000       0x4a /Applications/MCUXpressoIDE_11.7.0_9198/ide/plugins/com.nxp.mcuxpresso.tools.macosx_11.7.0.202209140929/tools/bin/../lib/gcc/arm-none-eabi/10.3.1/../../../../arm-none-eabi/lib/thumb/v7e-m+fp/hard/libcr_nohost_nf.a(__sys_rename.o)
 .ARM.attributes
                0x0000000000000000       0x34 /Applications/MCUXpressoIDE_11.7.0_9198/ide/plugins/com.nxp.mcuxpresso.tools.macosx_11.7.0.202209140929/tools/bin/../lib/gcc/arm-none-eabi/10.3.1/../../../../arm-none-eabi/lib/thumb/v7e-m+fp/hard/libcr_nohost_nf.a(__sys_rename.o)
 .text          0x0000000000000000        0x0 /Applications/MCUXpressoIDE_11.7.0_9198/ide/plugins/com.nxp.mcuxpresso.tools.macosx_11.7.0.202209140929/tools/bin/../lib/gcc/arm-none-eabi/10.3.1/../../../../arm-none-eabi/lib/thumb/v7e-m+fp/hard/libcr_nohost_nf.a(__sys_seek.o)
 .data          0x0000000000000000        0x0 /Applications/MCUXpressoIDE_11.7.0_9198/ide/plugins/com.nxp.mcuxpresso.tools.macosx_11.7.0.202209140929/tools/bin/../lib/gcc/arm-none-eabi/10.3.1/../../../../arm-none-eabi/lib/thumb/v7e-m+fp/hard/libcr_nohost_nf.a(__sys_seek.o)
 .bss           0x0000000000000000        0x0 /Applications/MCUXpressoIDE_11.7.0_9198/ide/plugins/com.nxp.mcuxpresso.tools.macosx_11.7.0.202209140929/tools/bin/../lib/gcc/arm-none-eabi/10.3.1/../../../../arm-none-eabi/lib/thumb/v7e-m+fp/hard/libcr_nohost_nf.a(__sys_seek.o)
 .text          0x0000000000000000        0x0 /Applications/MCUXpressoIDE_11.7.0_9198/ide/plugins/com.nxp.mcuxpresso.tools.macosx_11.7.0.202209140929/tools/bin/../lib/gcc/arm-none-eabi/10.3.1/../../../../arm-none-eabi/lib/thumb/v7e-m+fp/hard/libcr_nohost_nf.a(__sys_tmpnam.o)
 .data          0x0000000000000000        0x0 /Applications/MCUXpressoIDE_11.7.0_9198/ide/plugins/com.nxp.mcuxpresso.tools.macosx_11.7.0.202209140929/tools/bin/../lib/gcc/arm-none-eabi/10.3.1/../../../../arm-none-eabi/lib/thumb/v7e-m+fp/hard/libcr_nohost_nf.a(__sys_tmpnam.o)
 .bss           0x0000000000000000        0x0 /Applications/MCUXpressoIDE_11.7.0_9198/ide/plugins/com.nxp.mcuxpresso.tools.macosx_11.7.0.202209140929/tools/bin/../lib/gcc/arm-none-eabi/10.3.1/../../../../arm-none-eabi/lib/thumb/v7e-m+fp/hard/libcr_nohost_nf.a(__sys_tmpnam.o)
 .text          0x0000000000000000        0x0 /Applications/MCUXpressoIDE_11.7.0_9198/ide/plugins/com.nxp.mcuxpresso.tools.macosx_11.7.0.202209140929/tools/bin/../lib/gcc/arm-none-eabi/10.3.1/../../../../arm-none-eabi/lib/thumb/v7e-m+fp/hard/libcr_nohost_nf.a(__sys_write.o)
 .data          0x0000000000000000        0x0 /Applications/MCUXpressoIDE_11.7.0_9198/ide/plugins/com.nxp.mcuxpresso.tools.macosx_11.7.0.202209140929/tools/bin/../lib/gcc/arm-none-eabi/10.3.1/../../../../arm-none-eabi/lib/thumb/v7e-m+fp/hard/libcr_nohost_nf.a(__sys_write.o)
 .bss           0x0000000000000000        0x0 /Applications/MCUXpressoIDE_11.7.0_9198/ide/plugins/com.nxp.mcuxpresso.tools.macosx_11.7.0.202209140929/tools/bin/../lib/gcc/arm-none-eabi/10.3.1/../../../../arm-none-eabi/lib/thumb/v7e-m+fp/hard/libcr_nohost_nf.a(__sys_write.o)

Memory Configuration

Name             Origin             Length             Attributes
BOARD_FLASH      0x0000000030000000 0x0000000004000000 xr
SRAM_ITC_cm7     0x0000000000000000 0x0000000000040000 xrw
SRAM_DTC_cm7     0x0000000020000000 0x0000000000040000 xrw
SRAM_OC1         0x0000000020240000 0x0000000000080000 xrw
SRAM_OC2         0x00000000202c0000 0x0000000000080000 xrw
SRAM_OC_ECC1     0x0000000020340000 0x0000000000010000 xrw
SRAM_OC_ECC2     0x0000000020350000 0x0000000000010000 xrw
SRAM_OC_cm7      0x0000000020360000 0x0000000000020000 xrw
BOARD_SDRAM      0x0000000080000000 0x0000000003000000 xrw
NCACHE_REGION    0x0000000083000000 0x0000000001000000 xrw
*default*        0x0000000000000000 0xffffffffffffffff

Linker script and memory map

LOAD ./xip/evkmimxrt1170_flexspi_nor_config.o
LOAD ./xip/fsl_flexspi_nor_boot.o
LOAD ./utilities/fsl_assert.o
LOAD ./utilities/fsl_debug_console.o
LOAD ./utilities/fsl_str.o
LOAD ./startup/boot_multicore_slave.o
LOAD ./startup/startup_mimxrt1176_cm7.o
LOAD ./source/MIMXRT1176_Project.o
LOAD ./source/semihost_hardfault.o
LOAD ./drivers/fsl_anatop_ai.o
LOAD ./drivers/fsl_clock.o
LOAD ./drivers/fsl_common.o
LOAD ./drivers/fsl_common_arm.o
LOAD ./drivers/fsl_dcdc.o
LOAD ./drivers/fsl_gpio.o
LOAD ./drivers/fsl_lpuart.o
LOAD ./drivers/fsl_pmu.o
LOAD ./device/system_MIMXRT1176_cm7.o
LOAD ./component/uart/fsl_adapter_lpuart.o
LOAD ./component/serial_manager/fsl_component_serial_manager.o
LOAD ./component/serial_manager/fsl_component_serial_port_uart.o
LOAD ./component/lists/fsl_component_generic_list.o
LOAD ./board/board.o
LOAD ./board/clock_config.o
LOAD ./board/dcd.o
LOAD ./board/peripherals.o
LOAD ./board/pin_mux.o
LOAD ./board/xmcd.o
START GROUP
LOAD /Applications/MCUXpressoIDE_11.7.0_9198/ide/plugins/com.nxp.mcuxpresso.tools.macosx_11.7.0.202209140929/tools/bin/../lib/gcc/arm-none-eabi/10.3.1/../../../../arm-none-eabi/lib/thumb/v7e-m+fp/hard/libcr_nohost_nf.a
LOAD /Applications/MCUXpressoIDE_11.7.0_9198/ide/plugins/com.nxp.mcuxpresso.tools.macosx_11.7.0.202209140929/tools/bin/../lib/gcc/arm-none-eabi/10.3.1/../../../../arm-none-eabi/lib/thumb/v7e-m+fp/hard/libcr_c.a
LOAD /Applications/MCUXpressoIDE_11.7.0_9198/ide/plugins/com.nxp.mcuxpresso.tools.macosx_11.7.0.202209140929/tools/bin/../lib/gcc/arm-none-eabi/10.3.1/thumb/v7e-m+fp/hard/libcr_eabihelpers.a
LOAD /Applications/MCUXpressoIDE_11.7.0_9198/ide/plugins/com.nxp.mcuxpresso.tools.macosx_11.7.0.202209140929/tools/bin/../lib/gcc/arm-none-eabi/10.3.1/thumb/v7e-m+fp/hard/libgcc.a
END GROUP
                0x0000000030000000                __base_BOARD_FLASH = 0x30000000
                0x0000000030000000                __base_Flash = 0x30000000
                0x0000000034000000                __top_BOARD_FLASH = 0x34000000
                0x0000000034000000                __top_Flash = 0x34000000
                0x0000000000000000                __base_SRAM_ITC_cm7 = 0x0
                0x0000000000000000                __base_RAM = 0x0
                0x0000000000040000                __top_SRAM_ITC_cm7 = 0x40000
                0x0000000000040000                __top_RAM = 0x40000
                0x0000000020000000                __base_SRAM_DTC_cm7 = 0x20000000
                0x0000000020000000                __base_RAM2 = 0x20000000
                0x0000000020040000                __top_SRAM_DTC_cm7 = 0x20040000
                0x0000000020040000                __top_RAM2 = 0x20040000
                0x0000000020240000                __base_SRAM_OC1 = 0x20240000
                0x0000000020240000                __base_RAM3 = 0x20240000
                0x00000000202c0000                __top_SRAM_OC1 = 0x202c0000
                0x00000000202c0000                __top_RAM3 = 0x202c0000
                0x00000000202c0000                __base_SRAM_OC2 = 0x202c0000
                0x00000000202c0000                __base_RAM4 = 0x202c0000
                0x0000000020340000                __top_SRAM_OC2 = 0x20340000
                0x0000000020340000                __top_RAM4 = 0x20340000
                0x0000000020340000                __base_SRAM_OC_ECC1 = 0x20340000
                0x0000000020340000                __base_RAM5 = 0x20340000
                0x0000000020350000                __top_SRAM_OC_ECC1 = 0x20350000
                0x0000000020350000                __top_RAM5 = 0x20350000
                0x0000000020350000                __base_SRAM_OC_ECC2 = 0x20350000
                0x0000000020350000                __base_RAM6 = 0x20350000
                0x0000000020360000                __top_SRAM_OC_ECC2 = 0x20360000
                0x0000000020360000                __top_RAM6 = 0x20360000
                0x0000000020360000                __base_SRAM_OC_cm7 = 0x20360000
                0x0000000020360000                __base_RAM7 = 0x20360000
                0x0000000020380000                __top_SRAM_OC_cm7 = 0x20380000
                0x0000000020380000                __top_RAM7 = 0x20380000
                0x0000000080000000                __base_BOARD_SDRAM = 0x80000000
                0x0000000080000000                __base_RAM8 = 0x80000000
                0x0000000083000000                __top_BOARD_SDRAM = 0x83000000
                0x0000000083000000                __top_RAM8 = 0x83000000
                0x0000000083000000                __base_NCACHE_REGION = 0x83000000
                0x0000000083000000                __base_RAM9 = 0x83000000
                0x0000000084000000                __top_NCACHE_REGION = 0x84000000
                0x0000000084000000                __top_RAM9 = 0x84000000

.text           0x0000000000000000     0x3e58
 FILL mask 0xff
                0x0000000000000000                __vectors_start__ = ABSOLUTE (.)
 *(SORT_BY_ALIGNMENT(.isr_vector))
 .isr_vector    0x0000000000000000      0x3a8 ./startup/startup_mimxrt1176_cm7.o
                0x0000000000000000                __Vectors
                0x0000000000000000                g_pfnVectors
                0x00000000000003a8                . = ALIGN (0x4)
                0x00000000000003a8                __section_table_start = .
                0x00000000000003a8                __data_section_table = .
                0x00000000000003a8        0x4 LONG 0x3e58 LOADADDR (.data)
                0x00000000000003ac        0x4 LONG 0x3e58 ADDR (.data)
                0x00000000000003b0        0x4 LONG 0x4 SIZEOF (.data)
                0x00000000000003b4        0x4 LONG 0x3e58 LOADADDR (.data_RAM2)
                0x00000000000003b8        0x4 LONG 0x20000000 ADDR (.data_RAM2)
                0x00000000000003bc        0x4 LONG 0x0 SIZEOF (.data_RAM2)
                0x00000000000003c0        0x4 LONG 0x3e58 LOADADDR (.data_RAM3)
                0x00000000000003c4        0x4 LONG 0x20240000 ADDR (.data_RAM3)
                0x00000000000003c8        0x4 LONG 0x0 SIZEOF (.data_RAM3)
                0x00000000000003cc        0x4 LONG 0x3e58 LOADADDR (.data_RAM4)
                0x00000000000003d0        0x4 LONG 0x202c0000 ADDR (.data_RAM4)
                0x00000000000003d4        0x4 LONG 0x0 SIZEOF (.data_RAM4)
                0x00000000000003d8        0x4 LONG 0x3e58 LOADADDR (.data_RAM5)
                0x00000000000003dc        0x4 LONG 0x20340000 ADDR (.data_RAM5)
                0x00000000000003e0        0x4 LONG 0x0 SIZEOF (.data_RAM5)
                0x00000000000003e4        0x4 LONG 0x3e58 LOADADDR (.data_RAM6)
                0x00000000000003e8        0x4 LONG 0x20350000 ADDR (.data_RAM6)
                0x00000000000003ec        0x4 LONG 0x0 SIZEOF (.data_RAM6)
                0x00000000000003f0        0x4 LONG 0x3e58 LOADADDR (.data_RAM7)
                0x00000000000003f4        0x4 LONG 0x20360000 ADDR (.data_RAM7)
                0x00000000000003f8        0x4 LONG 0x0 SIZEOF (.data_RAM7)
                0x00000000000003fc        0x4 LONG 0x3e58 LOADADDR (.data_RAM8)
                0x0000000000000400        0x4 LONG 0x80000000 ADDR (.data_RAM8)
                0x0000000000000404        0x4 LONG 0x0 SIZEOF (.data_RAM8)
                0x0000000000000408        0x4 LONG 0x3e58 LOADADDR (.data_RAM9)
                0x000000000000040c        0x4 LONG 0x83000000 ADDR (.data_RAM9)
                0x0000000000000410        0x4 LONG 0x0 SIZEOF (.data_RAM9)
                0x0000000000000414                __data_section_table_end = .
                0x0000000000000414                __bss_section_table = .
                0x0000000000000414        0x4 LONG 0x3e5c ADDR (.bss)
                0x0000000000000418        0x4 LONG 0x148 SIZEOF (.bss)
                0x000000000000041c        0x4 LONG 0x20000000 ADDR (.bss_RAM2)
                0x0000000000000420        0x4 LONG 0x0 SIZEOF (.bss_RAM2)
                0x0000000000000424        0x4 LONG 0x20240000 ADDR (.bss_RAM3)
                0x0000000000000428        0x4 LONG 0x0 SIZEOF (.bss_RAM3)
                0x000000000000042c        0x4 LONG 0x202c0000 ADDR (.bss_RAM4)
                0x0000000000000430        0x4 LONG 0x0 SIZEOF (.bss_RAM4)
                0x0000000000000434        0x4 LONG 0x20340000 ADDR (.bss_RAM5)
                0x0000000000000438        0x4 LONG 0x0 SIZEOF (.bss_RAM5)
                0x000000000000043c        0x4 LONG 0x20350000 ADDR (.bss_RAM6)
                0x0000000000000440        0x4 LONG 0x0 SIZEOF (.bss_RAM6)
                0x0000000000000444        0x4 LONG 0x20360000 ADDR (.bss_RAM7)
                0x0000000000000448        0x4 LONG 0x0 SIZEOF (.bss_RAM7)
                0x000000000000044c        0x4 LONG 0x80000000 ADDR (.bss_RAM8)
                0x0000000000000450        0x4 LONG 0x0 SIZEOF (.bss_RAM8)
                0x0000000000000454        0x4 LONG 0x83000000 ADDR (.bss_RAM9)
                0x0000000000000458        0x4 LONG 0x0 SIZEOF (.bss_RAM9)
                0x000000000000045c                __bss_section_table_end = .
                0x000000000000045c                __section_table_end = .
 *(SORT_BY_ALIGNMENT(.after_vectors*))
 .after_vectors.init_data
                0x000000000000045c       0x44 ./startup/startup_mimxrt1176_cm7.o
                0x000000000000045c                data_init
 .after_vectors.init_bss
                0x00000000000004a0       0x40 ./startup/startup_mimxrt1176_cm7.o
                0x00000000000004a0                bss_init
 .after_vectors.reset
                0x00000000000004e0       0x50 ./startup/startup_mimxrt1176_cm7.o
                0x00000000000004e0                ResetISR
 .after_vectors
                0x0000000000000530       0x14 ./startup/startup_mimxrt1176_cm7.o
                0x0000000000000530                NMI_Handler
                0x0000000000000534                MemManage_Handler
                0x0000000000000536                BusFault_Handler
                0x0000000000000538                UsageFault_Handler
                0x000000000000053a                SVC_Handler
                0x000000000000053c                DebugMon_Handler
                0x000000000000053e                PendSV_Handler
                0x0000000000000540                SysTick_Handler
                0x0000000000000542                ADC_ETC_IRQ3_DriverIRQHandler
                0x0000000000000542                Reserved168_DriverIRQHandler
                0x0000000000000542                Reserved178_DriverIRQHandler
                0x0000000000000542                SNVS_HP_NON_TZ_DriverIRQHandler
                0x0000000000000542                PWM4_FAULT_DriverIRQHandler
                0x0000000000000542                DMA13_DMA29_DriverIRQHandler
                0x0000000000000542                Reserved185_DriverIRQHandler
                0x0000000000000542                FLEXRAM_DriverIRQHandler
                0x0000000000000542                KEY_MANAGER_DriverIRQHandler
                0x0000000000000542                LPSPI4_DriverIRQHandler
                0x0000000000000542                SEMC_DriverIRQHandler
                0x0000000000000542                SPDIF_DriverIRQHandler
                0x0000000000000542                PWM4_3_DriverIRQHandler
                0x0000000000000542                LPI2C5_DriverIRQHandler
                0x0000000000000542                TMPSNS_LOW_HIGH_DriverIRQHandler
                0x0000000000000542                RDC_DriverIRQHandler
                0x0000000000000542                GPIO3_Combined_0_15_DriverIRQHandler
                0x0000000000000542                Reserved167_DriverIRQHandler
                0x0000000000000542                CAN3_DriverIRQHandler
                0x0000000000000542                PIT2_DriverIRQHandler
                0x0000000000000542                CAAM_RTIC_DriverIRQHandler
                0x0000000000000542                OCOTP_READ_FUSE_ERROR_DriverIRQHandler
                0x0000000000000542                DMA7_DMA23_DriverIRQHandler
                0x0000000000000542                GPIO6_Combined_16_31_DriverIRQHandler
                0x0000000000000542                SAI4_TX_DriverIRQHandler
                0x0000000000000542                Reserved110_DriverIRQHandler
                0x0000000000000542                Reserved210_DriverIRQHandler
                0x0000000000000542                LPI2C3_DriverIRQHandler
                0x0000000000000542                GPR_IRQ_DriverIRQHandler
                0x0000000000000542                Reserved208_DriverIRQHandler
                0x0000000000000542                PWM2_FAULT_DriverIRQHandler
                0x0000000000000542                PWM3_1_DriverIRQHandler
                0x0000000000000542                SEMA4_CP1_DriverIRQHandler
                0x0000000000000542                DAC_DriverIRQHandler
                0x0000000000000542                ENET_1G_MAC0_Tx_Rx_1_DriverIRQHandler
                0x0000000000000542                XECC_FLEXSPI2_INT_DriverIRQHandler
                0x0000000000000542                LPSR_LP8_BROWNOUT_DriverIRQHandler
                0x0000000000000542                Reserved166_DriverIRQHandler
                0x0000000000000542                DMA14_DMA30_DriverIRQHandler
                0x0000000000000542                TMR1_DriverIRQHandler
                0x0000000000000542                PWM3_2_DriverIRQHandler
                0x0000000000000542                ENET_1588_Timer_DriverIRQHandler
                0x0000000000000542                ENET_QOS_PMT_DriverIRQHandler
                0x0000000000000542                FLEXIO2_DriverIRQHandler
                0x0000000000000542                GPIO2_Combined_16_31_DriverIRQHandler
                0x0000000000000542                CTI_TRIGGER_OUT0_DriverIRQHandler
                0x0000000000000542                PWM4_1_DriverIRQHandler
                0x0000000000000542                Reserved213_DriverIRQHandler
                0x0000000000000542                CAAM_IRQ0_DriverIRQHandler
                0x0000000000000542                RTWDOG3_DriverIRQHandler
                0x0000000000000542                PWM3_3_DriverIRQHandler
                0x0000000000000542                DMA0_DMA16_DriverIRQHandler
                0x0000000000000542                IntDefaultHandler
                0x0000000000000542                DMA2_DMA18_DriverIRQHandler
                0x0000000000000542                XECC_FLEXSPI1_FATAL_INT_DriverIRQHandler
                0x0000000000000542                XECC_SEMC_INT_DriverIRQHandler
                0x0000000000000542                USDHC1_DriverIRQHandler
                0x0000000000000542                ENC3_DriverIRQHandler
                0x0000000000000542                PWM3_FAULT_DriverIRQHandler
                0x0000000000000542                Reserved186_DriverIRQHandler
                0x0000000000000542                LPI2C6_DriverIRQHandler
                0x0000000000000542                TMPSNS_PANIC_DriverIRQHandler
                0x0000000000000542                EWM_DriverIRQHandler
                0x0000000000000542                WDOG1_DriverIRQHandler
                0x0000000000000542                FLEXIO1_DriverIRQHandler
                0x0000000000000542                ENET_DriverIRQHandler
                0x0000000000000542                TMR4_DriverIRQHandler
                0x0000000000000542                ENC2_DriverIRQHandler
                0x0000000000000542                ENET_1G_MAC0_Tx_Rx_2_DriverIRQHandler
                0x0000000000000542                ADC_ETC_IRQ2_DriverIRQHandler
                0x0000000000000542                GPIO1_Combined_16_31_DriverIRQHandler
                0x0000000000000542                SAI1_DriverIRQHandler
                0x0000000000000542                DMA12_DMA28_DriverIRQHandler
                0x0000000000000542                MECC1_FATAL_INT_DriverIRQHandler
                0x0000000000000542                PWM4_0_DriverIRQHandler
                0x0000000000000542                MIPI_DSI_DriverIRQHandler
                0x0000000000000542                ADC_ETC_ERROR_IRQ_DriverIRQHandler
                0x0000000000000542                ACMP2_DriverIRQHandler
                0x0000000000000542                GPIO5_Combined_0_15_DriverIRQHandler
                0x0000000000000542                GPU2D_DriverIRQHandler
                0x0000000000000542                GPT2_DriverIRQHandler
                0x0000000000000542                MUA_DriverIRQHandler
                0x0000000000000542                CAN3_ERROR_DriverIRQHandler
                0x0000000000000542                DMA10_DMA26_DriverIRQHandler
                0x0000000000000542                PWM2_1_DriverIRQHandler
                0x0000000000000542                PWM1_1_DriverIRQHandler
                0x0000000000000542                PXP_DriverIRQHandler
                0x0000000000000542                ADC1_DriverIRQHandler
                0x0000000000000542                PDM_ERROR_DriverIRQHandler
                0x0000000000000542                MIPI_CSI_DriverIRQHandler
                0x0000000000000542                CAAM_IRQ3_DriverIRQHandler
                0x0000000000000542                PWM1_0_DriverIRQHandler
                0x0000000000000542                CAAM_IRQ1_DriverIRQHandler
                0x0000000000000542                DMA1_DMA17_DriverIRQHandler
                0x0000000000000542                GPT6_DriverIRQHandler
                0x0000000000000542                PIT1_DriverIRQHandler
                0x0000000000000542                ENC1_DriverIRQHandler
                0x0000000000000542                ENC4_DriverIRQHandler
                0x0000000000000542                CAN2_DriverIRQHandler
                0x0000000000000542                Reserved169_DriverIRQHandler
                0x0000000000000542                LPSR_LP0_BROWNOUT_DriverIRQHandler
                0x0000000000000542                CAN2_ERROR_DriverIRQHandler
                0x0000000000000542                GPT5_DriverIRQHandler
                0x0000000000000542                DMA8_DMA24_DriverIRQHandler
                0x0000000000000542                GPT1_DriverIRQHandler
                0x0000000000000542                SNVS_HP_TZ_DriverIRQHandler
                0x0000000000000542                CAAM_RECORVE_ERRPR_DriverIRQHandler
                0x0000000000000542                CAAM_IRQ2_DriverIRQHandler
                0x0000000000000542                ACMP3_DriverIRQHandler
                0x0000000000000542                DMA6_DMA22_DriverIRQHandler
                0x0000000000000542                GPIO6_Combined_0_15_DriverIRQHandler
                0x0000000000000542                SAI4_RX_DriverIRQHandler
                0x0000000000000542                TMR3_DriverIRQHandler
                0x0000000000000542                TMR2_DriverIRQHandler
                0x0000000000000542                DCIC2_DriverIRQHandler
                0x0000000000000542                FLEXSPI1_DriverIRQHandler
                0x0000000000000542                GPIO1_Combined_0_15_DriverIRQHandler
                0x0000000000000542                USDHC2_DriverIRQHandler
                0x0000000000000542                PWM4_2_DriverIRQHandler
                0x0000000000000542                SAI2_DriverIRQHandler
                0x0000000000000542                CORE_DriverIRQHandler
                0x0000000000000542                LPSPI6_DriverIRQHandler
                0x0000000000000542                USBPHY2_DriverIRQHandler
                0x0000000000000542                OCOTP_READ_DONE_ERROR_DriverIRQHandler
                0x0000000000000542                CDOG_DriverIRQHandler
                0x0000000000000542                USBPHY1_DriverIRQHandler
                0x0000000000000542                PDM_EVENT_DriverIRQHandler
                0x0000000000000542                LCDIFv2_DriverIRQHandler
                0x0000000000000542                Reserved211_DriverIRQHandler
                0x0000000000000542                DMA11_DMA27_DriverIRQHandler
                0x0000000000000542                CSI_DriverIRQHandler
                0x0000000000000542                PWM2_3_DriverIRQHandler
                0x0000000000000542                XBAR1_IRQ_2_3_DriverIRQHandler
                0x0000000000000542                GPIO3_Combined_16_31_DriverIRQHandler
                0x0000000000000542                PWM1_FAULT_DriverIRQHandler
                0x0000000000000542                LPI2C1_DriverIRQHandler
                0x0000000000000542                EMVSIM2_DriverIRQHandler
                0x0000000000000542                MECC2_FATAL_INT_DriverIRQHandler
                0x0000000000000542                PWM2_2_DriverIRQHandler
                0x0000000000000542                DMA4_DMA20_DriverIRQHandler
                0x0000000000000542                DMA9_DMA25_DriverIRQHandler
                0x0000000000000542                GPT4_DriverIRQHandler
                0x0000000000000542                XBAR1_IRQ_0_1_DriverIRQHandler
                0x0000000000000542                ADC_ETC_IRQ1_DriverIRQHandler
                0x0000000000000542                LPSPI1_DriverIRQHandler
                0x0000000000000542                Reserved215_DriverIRQHandler
                0x0000000000000542                DMA3_DMA19_DriverIRQHandler
                0x0000000000000542                XECC_FLEXSPI1_INT_DriverIRQHandler
                0x0000000000000542                ENET_QOS_DriverIRQHandler
                0x0000000000000542                LPSPI5_DriverIRQHandler
                0x0000000000000542                SEMA4_CP0_DriverIRQHandler
                0x0000000000000542                Reserved170_DriverIRQHandler
                0x0000000000000542                Reserved177_DriverIRQHandler
                0x0000000000000542                LPI2C4_DriverIRQHandler
                0x0000000000000542                GPC_DriverIRQHandler
                0x0000000000000542                GPIO2_Combined_0_15_DriverIRQHandler
                0x0000000000000542                GPT3_DriverIRQHandler
                0x0000000000000542                TMPSNS_INT_DriverIRQHandler
                0x0000000000000542                PWM1_2_DriverIRQHandler
                0x0000000000000542                USB_OTG1_DriverIRQHandler
                0x0000000000000542                XECC_SEMC_FATAL_INT_DriverIRQHandler
                0x0000000000000542                SAI3_TX_DriverIRQHandler
                0x0000000000000542                WDOG2_DriverIRQHandler
                0x0000000000000542                Reserved68_DriverIRQHandler
                0x0000000000000542                MECC2_INT_DriverIRQHandler
                0x0000000000000542                ENET_1G_1588_Timer_DriverIRQHandler
                0x0000000000000542                Reserved180_DriverIRQHandler
                0x0000000000000542                PWM3_0_DriverIRQHandler
                0x0000000000000542                CAN1_ERROR_DriverIRQHandler
                0x0000000000000542                GPIO4_Combined_0_15_DriverIRQHandler
                0x0000000000000542                GPIO4_Combined_16_31_DriverIRQHandler
                0x0000000000000542                GPIO5_Combined_16_31_DriverIRQHandler
                0x0000000000000542                EMVSIM1_DriverIRQHandler
                0x0000000000000542                ASRC_DriverIRQHandler
                0x0000000000000542                DMA5_DMA21_DriverIRQHandler
                0x0000000000000542                Reserved179_DriverIRQHandler
                0x0000000000000542                ADC2_DriverIRQHandler
                0x0000000000000542                DMA15_DMA31_DriverIRQHandler
                0x0000000000000542                PDM_HWVAD_ERROR_DriverIRQHandler
                0x0000000000000542                LPSPI3_DriverIRQHandler
                0x0000000000000542                PWM1_3_DriverIRQHandler
                0x0000000000000542                PDM_HWVAD_EVENT_DriverIRQHandler
                0x0000000000000542                ACMP1_DriverIRQHandler
                0x0000000000000542                LPI2C2_DriverIRQHandler
                0x0000000000000542                XECC_FLEXSPI2_FATAL_INT_DriverIRQHandler
                0x0000000000000542                DMA_ERROR_DriverIRQHandler
                0x0000000000000542                ADC_ETC_IRQ0_DriverIRQHandler
                0x0000000000000542                Reserved212_DriverIRQHandler
                0x0000000000000542                CAN1_DriverIRQHandler
                0x0000000000000542                eLCDIF_DriverIRQHandler
                0x0000000000000542                MECC1_INT_DriverIRQHandler
                0x0000000000000542                CTI_TRIGGER_OUT1_DriverIRQHandler
                0x0000000000000542                PWM2_0_DriverIRQHandler
                0x0000000000000542                ENET_1G_DriverIRQHandler
                0x0000000000000542                Reserved209_DriverIRQHandler
                0x0000000000000542                SNVS_PULSE_EVENT_DriverIRQHandler
                0x0000000000000542                CM7_GPIO2_3_DriverIRQHandler
                0x0000000000000542                GPIO13_Combined_0_31_DriverIRQHandler
                0x0000000000000542                ACMP4_DriverIRQHandler
                0x0000000000000542                USB_OTG2_DriverIRQHandler
                0x0000000000000542                Reserved214_DriverIRQHandler
                0x0000000000000542                DCIC1_DriverIRQHandler
                0x0000000000000542                KPP_DriverIRQHandler
                0x0000000000000542                FLEXSPI2_DriverIRQHandler
                0x0000000000000542                LPSPI2_DriverIRQHandler
                0x0000000000000542                FLEXRAM_ECC_DriverIRQHandler
                0x0000000000000542                SAI3_RX_DriverIRQHandler
 *(SORT_BY_ALIGNMENT(.text*))
 *fill*         0x0000000000000544        0x4 ff
 .text.CLOCK_GetAvPllFreq
                0x0000000000000548       0x90 ./drivers/fsl_clock.o
 .text.DbgConsole_SendDataReliable
                0x00000000000005d8       0x30 ./utilities/fsl_debug_console.o
                0x00000000000005d8                DbgConsole_SendDataReliable
 .text.DbgConsole_Init
                0x0000000000000608       0x90 ./utilities/fsl_debug_console.o
                0x0000000000000608                DbgConsole_Init
 .text.DbgConsole_Vprintf
                0x0000000000000698       0x3c ./utilities/fsl_debug_console.o
                0x0000000000000698                DbgConsole_Vprintf
 .text.startup.main
                0x00000000000006d4       0x38 ./source/MIMXRT1176_Project.o
                0x00000000000006d4                main
 .text.ANATOP_AI_Access
                0x000000000000070c      0x35c ./drivers/fsl_anatop_ai.o
                0x000000000000070c                ANATOP_AI_Access
 .text.CLOCK_GetPllFreq.part.0
                0x0000000000000a68       0x30 ./drivers/fsl_clock.o
 .text.ANATOP_PllToggleHoldRingOff.constprop.0
                0x0000000000000a98       0x2c ./drivers/fsl_clock.o
 .text.ANATOP_PllConfigure
                0x0000000000000ac4       0xa4 ./drivers/fsl_clock.o
 .text.CLOCK_InitArmPll
                0x0000000000000b68       0xcc ./drivers/fsl_clock.o
                0x0000000000000b68                CLOCK_InitArmPll
 .text.CLOCK_InitSysPll2
                0x0000000000000c34      0x120 ./drivers/fsl_clock.o
                0x0000000000000c34                CLOCK_InitSysPll2
 .text.CLOCK_InitPfd
                0x0000000000000d54       0xa4 ./drivers/fsl_clock.o
                0x0000000000000d54                CLOCK_InitPfd
 .text.CLOCK_GetPfdFreq
                0x0000000000000df8       0x4c ./drivers/fsl_clock.o
                0x0000000000000df8                CLOCK_GetPfdFreq
 .text.CLOCK_InitSysPll3
                0x0000000000000e44       0x98 ./drivers/fsl_clock.o
                0x0000000000000e44                CLOCK_InitSysPll3
 .text.CLOCK_SetPllBypass
                0x0000000000000edc       0x6c ./drivers/fsl_clock.o
                0x0000000000000edc                CLOCK_SetPllBypass
 .text.CLOCK_DeinitAudioPll
                0x0000000000000f48       0x4c ./drivers/fsl_clock.o
                0x0000000000000f48                CLOCK_DeinitAudioPll
 .text.CLOCK_InitVideoPll
                0x0000000000000f94       0xb8 ./drivers/fsl_clock.o
                0x0000000000000f94                CLOCK_InitVideoPll
 .text.CLOCK_DeinitSysPll1
                0x000000000000104c       0x64 ./drivers/fsl_clock.o
                0x000000000000104c                CLOCK_DeinitSysPll1
 .text.CLOCK_GetFreq
                0x00000000000010b0       0xe4 ./drivers/fsl_clock.o
                0x00000000000010b0                CLOCK_GetFreq
 .text.CLOCK_OSC_EnableOscRc400M
                0x0000000000001194       0x18 ./drivers/fsl_clock.o
                0x0000000000001194                CLOCK_OSC_EnableOscRc400M
 .text.SDK_DelayAtLeastUs
                0x00000000000011ac       0x24 ./drivers/fsl_common_arm.o
                0x00000000000011ac                SDK_DelayAtLeastUs
 .text.CLOCK_ControlGate
                0x00000000000011d0       0x34 ./drivers/fsl_lpuart.o
 .text.LPUART_GetInstance
                0x0000000000001204       0x1c ./drivers/fsl_lpuart.o
                0x0000000000001204                LPUART_GetInstance
 .text.LPUART_Init
                0x0000000000001220      0x198 ./drivers/fsl_lpuart.o
                0x0000000000001220                LPUART_Init
 .text.LPUART1_DriverIRQHandler
                0x00000000000013b8       0x20 ./drivers/fsl_lpuart.o
                0x00000000000013b8                LPUART1_DriverIRQHandler
 .text.LPUART2_DriverIRQHandler
                0x00000000000013d8       0x20 ./drivers/fsl_lpuart.o
                0x00000000000013d8                LPUART2_DriverIRQHandler
 .text.LPUART3_DriverIRQHandler
                0x00000000000013f8       0x20 ./drivers/fsl_lpuart.o
                0x00000000000013f8                LPUART3_DriverIRQHandler
 .text.LPUART4_DriverIRQHandler
                0x0000000000001418       0x20 ./drivers/fsl_lpuart.o
                0x0000000000001418                LPUART4_DriverIRQHandler
 .text.LPUART5_DriverIRQHandler
                0x0000000000001438       0x20 ./drivers/fsl_lpuart.o
                0x0000000000001438                LPUART5_DriverIRQHandler
 .text.LPUART6_DriverIRQHandler
                0x0000000000001458       0x20 ./drivers/fsl_lpuart.o
                0x0000000000001458                LPUART6_DriverIRQHandler
 .text.LPUART7_DriverIRQHandler
                0x0000000000001478       0x20 ./drivers/fsl_lpuart.o
                0x0000000000001478                LPUART7_DriverIRQHandler
 .text.LPUART8_DriverIRQHandler
                0x0000000000001498       0x20 ./drivers/fsl_lpuart.o
                0x0000000000001498                LPUART8_DriverIRQHandler
 .text.LPUART9_DriverIRQHandler
                0x00000000000014b8       0x20 ./drivers/fsl_lpuart.o
                0x00000000000014b8                LPUART9_DriverIRQHandler
 .text.LPUART10_DriverIRQHandler
                0x00000000000014d8       0x20 ./drivers/fsl_lpuart.o
                0x00000000000014d8                LPUART10_DriverIRQHandler
 .text.LPUART11_DriverIRQHandler
                0x00000000000014f8       0x20 ./drivers/fsl_lpuart.o
                0x00000000000014f8                LPUART11_DriverIRQHandler
 .text.LPUART12_DriverIRQHandler
                0x0000000000001518       0x20 ./drivers/fsl_lpuart.o
                0x0000000000001518                LPUART12_DriverIRQHandler
 .text.PMU_StaticEnablePllLdo
                0x0000000000001538       0x38 ./drivers/fsl_pmu.o
                0x0000000000001538                PMU_StaticEnablePllLdo
 .text.PMU_StaticEnableLpsrAnaLdoBypassMode
                0x0000000000001570       0x8c ./drivers/fsl_pmu.o
                0x0000000000001570                PMU_StaticEnableLpsrAnaLdoBypassMode
 .text.PMU_StaticEnableLpsrDigLdoBypassMode
                0x00000000000015fc       0x78 ./drivers/fsl_pmu.o
                0x00000000000015fc                PMU_StaticEnableLpsrDigLdoBypassMode
 .text.SystemInit
                0x0000000000001674      0x118 ./device/system_MIMXRT1176_cm7.o
                0x0000000000001674                SystemInit
 .text.HAL_UartInit
                0x000000000000178c       0x9c ./component/uart/fsl_adapter_lpuart.o
                0x000000000000178c                HAL_UartInit
 .text.HAL_UartSendBlocking
                0x0000000000001828       0x18 ./component/uart/fsl_adapter_lpuart.o
                0x0000000000001828                HAL_UartSendBlocking
 .text.BOARD_DebugConsoleSrcFreq
                0x0000000000001840       0x30 ./board/board.o
                0x0000000000001840                BOARD_DebugConsoleSrcFreq
 .text.DCDC_SetVDD1P0BuckModeTargetVoltage.constprop.0
                0x0000000000001870       0x24 ./board/clock_config.o
 .text.CLOCK_GetRootClockFreq.constprop.0
                0x0000000000001894       0x28 ./board/clock_config.o
 .text.CLOCK_SetRootClock.isra.0
                0x00000000000018bc       0x30 ./board/clock_config.o
 .text.BOARD_BootClockRUN
                0x00000000000018ec      0x4e8 ./board/clock_config.o
                0x00000000000018ec                BOARD_BootClockRUN
 .text.BOARD_InitPins
                0x0000000000001dd4       0x54 ./board/pin_mux.o
                0x0000000000001dd4                BOARD_InitPins
 .text._initio  0x0000000000001e28       0x78 /Applications/MCUXpressoIDE_11.7.0_9198/ide/plugins/com.nxp.mcuxpresso.tools.macosx_11.7.0.202209140929/tools/bin/../lib/gcc/arm-none-eabi/10.3.1/../../../../arm-none-eabi/lib/thumb/v7e-m+fp/hard/libcr_c.a(initio.o)
                0x0000000000001e28                _initio
 .text._Cwritebuf
                0x0000000000001ea0       0x6c /Applications/MCUXpressoIDE_11.7.0_9198/ide/plugins/com.nxp.mcuxpresso.tools.macosx_11.7.0.202209140929/tools/bin/../lib/gcc/arm-none-eabi/10.3.1/../../../../arm-none-eabi/lib/thumb/v7e-m+fp/hard/libcr_c.a(_writebuf.o)
                0x0000000000001ea0                _Cwritebuf
 .text.fflush   0x0000000000001f0c       0x3c /Applications/MCUXpressoIDE_11.7.0_9198/ide/plugins/com.nxp.mcuxpresso.tools.macosx_11.7.0.202209140929/tools/bin/../lib/gcc/arm-none-eabi/10.3.1/../../../../arm-none-eabi/lib/thumb/v7e-m+fp/hard/libcr_c.a(fflush.o)
                0x0000000000001f0c                fflush
 .text.fseek    0x0000000000001f48       0xfc /Applications/MCUXpressoIDE_11.7.0_9198/ide/plugins/com.nxp.mcuxpresso.tools.macosx_11.7.0.202209140929/tools/bin/../lib/gcc/arm-none-eabi/10.3.1/../../../../arm-none-eabi/lib/thumb/v7e-m+fp/hard/libcr_c.a(fseek.o)
                0x0000000000001f48                fseek
 .text.ftell    0x0000000000002044       0x44 /Applications/MCUXpressoIDE_11.7.0_9198/ide/plugins/com.nxp.mcuxpresso.tools.macosx_11.7.0.202209140929/tools/bin/../lib/gcc/arm-none-eabi/10.3.1/../../../../arm-none-eabi/lib/thumb/v7e-m+fp/hard/libcr_c.a(ftell.o)
                0x0000000000002044                ftell
 .text.__aeabi_dmul
                0x0000000000002088       0xfc /Applications/MCUXpressoIDE_11.7.0_9198/ide/plugins/com.nxp.mcuxpresso.tools.macosx_11.7.0.202209140929/tools/bin/../lib/gcc/arm-none-eabi/10.3.1/thumb/v7e-m+fp/hard/libcr_eabihelpers.a(double.o)
                0x0000000000002088                __aeabi_dmul
 .text.__aeabi_ddiv
                0x0000000000002184      0x138 /Applications/MCUXpressoIDE_11.7.0_9198/ide/plugins/com.nxp.mcuxpresso.tools.macosx_11.7.0.202209140929/tools/bin/../lib/gcc/arm-none-eabi/10.3.1/thumb/v7e-m+fp/hard/libcr_eabihelpers.a(double.o)
                0x0000000000002184                __aeabi_ddiv
 .text.__aeabi_dsub
                0x00000000000022bc      0x1ac /Applications/MCUXpressoIDE_11.7.0_9198/ide/plugins/com.nxp.mcuxpresso.tools.macosx_11.7.0.202209140929/tools/bin/../lib/gcc/arm-none-eabi/10.3.1/thumb/v7e-m+fp/hard/libcr_eabihelpers.a(double.o)
                0x00000000000022bc                __aeabi_dsub
 .text.__aeabi_dadd
                0x0000000000002468      0x114 /Applications/MCUXpressoIDE_11.7.0_9198/ide/plugins/com.nxp.mcuxpresso.tools.macosx_11.7.0.202209140929/tools/bin/../lib/gcc/arm-none-eabi/10.3.1/thumb/v7e-m+fp/hard/libcr_eabihelpers.a(double.o)
                0x0000000000002468                __aeabi_dadd
 .text.DbgConsole_PrintCallback
                0x000000000000257c       0x3a ./utilities/fsl_debug_console.o
 .text.DbgConsole_Printf
                0x00000000000025b6       0x1a ./utilities/fsl_debug_console.o
                0x00000000000025b6                DbgConsole_Printf
 .text.ConvertRadixNumToString.constprop.0
                0x00000000000025d0       0x48 ./utilities/fsl_str.o
 .text.StrFormatPrintf
                0x0000000000002618      0x1c8 ./utilities/fsl_str.o
                0x0000000000002618                StrFormatPrintf
 .text.DMA0_DMA16_IRQHandler
                0x00000000000027e0        0x8 ./startup/startup_mimxrt1176_cm7.o
                0x00000000000027e0                DMA0_DMA16_IRQHandler
 .text.DMA1_DMA17_IRQHandler
                0x00000000000027e8        0x8 ./startup/startup_mimxrt1176_cm7.o
                0x00000000000027e8                DMA1_DMA17_IRQHandler
 .text.DMA2_DMA18_IRQHandler
                0x00000000000027f0        0x8 ./startup/startup_mimxrt1176_cm7.o
                0x00000000000027f0                DMA2_DMA18_IRQHandler
 .text.DMA3_DMA19_IRQHandler
                0x00000000000027f8        0x8 ./startup/startup_mimxrt1176_cm7.o
                0x00000000000027f8                DMA3_DMA19_IRQHandler
 .text.DMA4_DMA20_IRQHandler
                0x0000000000002800        0x8 ./startup/startup_mimxrt1176_cm7.o
                0x0000000000002800                DMA4_DMA20_IRQHandler
 .text.DMA5_DMA21_IRQHandler
                0x0000000000002808        0x8 ./startup/startup_mimxrt1176_cm7.o
                0x0000000000002808                DMA5_DMA21_IRQHandler
 .text.DMA6_DMA22_IRQHandler
                0x0000000000002810        0x8 ./startup/startup_mimxrt1176_cm7.o
                0x0000000000002810                DMA6_DMA22_IRQHandler
 .text.DMA7_DMA23_IRQHandler
                0x0000000000002818        0x8 ./startup/startup_mimxrt1176_cm7.o
                0x0000000000002818                DMA7_DMA23_IRQHandler
 .text.DMA8_DMA24_IRQHandler
                0x0000000000002820        0x8 ./startup/startup_mimxrt1176_cm7.o
                0x0000000000002820                DMA8_DMA24_IRQHandler
 .text.DMA9_DMA25_IRQHandler
                0x0000000000002828        0x8 ./startup/startup_mimxrt1176_cm7.o
                0x0000000000002828                DMA9_DMA25_IRQHandler
 .text.DMA10_DMA26_IRQHandler
                0x0000000000002830        0x8 ./startup/startup_mimxrt1176_cm7.o
                0x0000000000002830                DMA10_DMA26_IRQHandler
 .text.DMA11_DMA27_IRQHandler
                0x0000000000002838        0x8 ./startup/startup_mimxrt1176_cm7.o
                0x0000000000002838                DMA11_DMA27_IRQHandler
 .text.DMA12_DMA28_IRQHandler
                0x0000000000002840        0x8 ./startup/startup_mimxrt1176_cm7.o
                0x0000000000002840                DMA12_DMA28_IRQHandler
 .text.DMA13_DMA29_IRQHandler
                0x0000000000002848        0x8 ./startup/startup_mimxrt1176_cm7.o
                0x0000000000002848                DMA13_DMA29_IRQHandler
 .text.DMA14_DMA30_IRQHandler
                0x0000000000002850        0x8 ./startup/startup_mimxrt1176_cm7.o
                0x0000000000002850                DMA14_DMA30_IRQHandler
 .text.DMA15_DMA31_IRQHandler
                0x0000000000002858        0x8 ./startup/startup_mimxrt1176_cm7.o
                0x0000000000002858                DMA15_DMA31_IRQHandler
 .text.DMA_ERROR_IRQHandler
                0x0000000000002860        0x8 ./startup/startup_mimxrt1176_cm7.o
                0x0000000000002860                DMA_ERROR_IRQHandler
 .text.CTI_TRIGGER_OUT0_IRQHandler
                0x0000000000002868        0x8 ./startup/startup_mimxrt1176_cm7.o
                0x0000000000002868                CTI_TRIGGER_OUT0_IRQHandler
 .text.CTI_TRIGGER_OUT1_IRQHandler
                0x0000000000002870        0x8 ./startup/startup_mimxrt1176_cm7.o
                0x0000000000002870                CTI_TRIGGER_OUT1_IRQHandler
 .text.CORE_IRQHandler
                0x0000000000002878        0x8 ./startup/startup_mimxrt1176_cm7.o
                0x0000000000002878                CORE_IRQHandler
 .text.LPUART1_IRQHandler
                0x0000000000002880        0x8 ./startup/startup_mimxrt1176_cm7.o
                0x0000000000002880                LPUART1_IRQHandler
 .text.LPUART2_IRQHandler
                0x0000000000002888        0x8 ./startup/startup_mimxrt1176_cm7.o
                0x0000000000002888                LPUART2_IRQHandler
 .text.LPUART3_IRQHandler
                0x0000000000002890        0x8 ./startup/startup_mimxrt1176_cm7.o
                0x0000000000002890                LPUART3_IRQHandler
 .text.LPUART4_IRQHandler
                0x0000000000002898        0x8 ./startup/startup_mimxrt1176_cm7.o
                0x0000000000002898                LPUART4_IRQHandler
 .text.LPUART5_IRQHandler
                0x00000000000028a0        0x8 ./startup/startup_mimxrt1176_cm7.o
                0x00000000000028a0                LPUART5_IRQHandler
 .text.LPUART6_IRQHandler
                0x00000000000028a8        0x8 ./startup/startup_mimxrt1176_cm7.o
                0x00000000000028a8                LPUART6_IRQHandler
 .text.LPUART7_IRQHandler
                0x00000000000028b0        0x8 ./startup/startup_mimxrt1176_cm7.o
                0x00000000000028b0                LPUART7_IRQHandler
 .text.LPUART8_IRQHandler
                0x00000000000028b8        0x8 ./startup/startup_mimxrt1176_cm7.o
                0x00000000000028b8                LPUART8_IRQHandler
 .text.LPUART9_IRQHandler
                0x00000000000028c0        0x8 ./startup/startup_mimxrt1176_cm7.o
                0x00000000000028c0                LPUART9_IRQHandler
 .text.LPUART10_IRQHandler
                0x00000000000028c8        0x8 ./startup/startup_mimxrt1176_cm7.o
                0x00000000000028c8                LPUART10_IRQHandler
 .text.LPUART11_IRQHandler
                0x00000000000028d0        0x8 ./startup/startup_mimxrt1176_cm7.o
                0x00000000000028d0                LPUART11_IRQHandler
 .text.LPUART12_IRQHandler
                0x00000000000028d8        0x8 ./startup/startup_mimxrt1176_cm7.o
                0x00000000000028d8                LPUART12_IRQHandler
 .text.LPI2C1_IRQHandler
                0x00000000000028e0        0x8 ./startup/startup_mimxrt1176_cm7.o
                0x00000000000028e0                LPI2C1_IRQHandler
 .text.LPI2C2_IRQHandler
                0x00000000000028e8        0x8 ./startup/startup_mimxrt1176_cm7.o
                0x00000000000028e8                LPI2C2_IRQHandler
 .text.LPI2C3_IRQHandler
                0x00000000000028f0        0x8 ./startup/startup_mimxrt1176_cm7.o
                0x00000000000028f0                LPI2C3_IRQHandler
 .text.LPI2C4_IRQHandler
                0x00000000000028f8        0x8 ./startup/startup_mimxrt1176_cm7.o
                0x00000000000028f8                LPI2C4_IRQHandler
 .text.LPI2C5_IRQHandler
                0x0000000000002900        0x8 ./startup/startup_mimxrt1176_cm7.o
                0x0000000000002900                LPI2C5_IRQHandler
 .text.LPI2C6_IRQHandler
                0x0000000000002908        0x8 ./startup/startup_mimxrt1176_cm7.o
                0x0000000000002908                LPI2C6_IRQHandler
 .text.LPSPI1_IRQHandler
                0x0000000000002910        0x8 ./startup/startup_mimxrt1176_cm7.o
                0x0000000000002910                LPSPI1_IRQHandler
 .text.LPSPI2_IRQHandler
                0x0000000000002918        0x8 ./startup/startup_mimxrt1176_cm7.o
                0x0000000000002918                LPSPI2_IRQHandler
 .text.LPSPI3_IRQHandler
                0x0000000000002920        0x8 ./startup/startup_mimxrt1176_cm7.o
                0x0000000000002920                LPSPI3_IRQHandler
 .text.LPSPI4_IRQHandler
                0x0000000000002928        0x8 ./startup/startup_mimxrt1176_cm7.o
                0x0000000000002928                LPSPI4_IRQHandler
 .text.LPSPI5_IRQHandler
                0x0000000000002930        0x8 ./startup/startup_mimxrt1176_cm7.o
                0x0000000000002930                LPSPI5_IRQHandler
 .text.LPSPI6_IRQHandler
                0x0000000000002938        0x8 ./startup/startup_mimxrt1176_cm7.o
                0x0000000000002938                LPSPI6_IRQHandler
 .text.CAN1_IRQHandler
                0x0000000000002940        0x8 ./startup/startup_mimxrt1176_cm7.o
                0x0000000000002940                CAN1_IRQHandler
 .text.CAN1_ERROR_IRQHandler
                0x0000000000002948        0x8 ./startup/startup_mimxrt1176_cm7.o
                0x0000000000002948                CAN1_ERROR_IRQHandler
 .text.CAN2_IRQHandler
                0x0000000000002950        0x8 ./startup/startup_mimxrt1176_cm7.o
                0x0000000000002950                CAN2_IRQHandler
 .text.CAN2_ERROR_IRQHandler
                0x0000000000002958        0x8 ./startup/startup_mimxrt1176_cm7.o
                0x0000000000002958                CAN2_ERROR_IRQHandler
 .text.CAN3_IRQHandler
                0x0000000000002960        0x8 ./startup/startup_mimxrt1176_cm7.o
                0x0000000000002960                CAN3_IRQHandler
 .text.CAN3_ERROR_IRQHandler
                0x0000000000002968        0x8 ./startup/startup_mimxrt1176_cm7.o
                0x0000000000002968                CAN3_ERROR_IRQHandler
 .text.FLEXRAM_IRQHandler
                0x0000000000002970        0x8 ./startup/startup_mimxrt1176_cm7.o
                0x0000000000002970                FLEXRAM_IRQHandler
 .text.KPP_IRQHandler
                0x0000000000002978        0x8 ./startup/startup_mimxrt1176_cm7.o
                0x0000000000002978                KPP_IRQHandler
 .text.Reserved68_IRQHandler
                0x0000000000002980        0x8 ./startup/startup_mimxrt1176_cm7.o
                0x0000000000002980                Reserved68_IRQHandler
 .text.GPR_IRQ_IRQHandler
                0x0000000000002988        0x8 ./startup/startup_mimxrt1176_cm7.o
                0x0000000000002988                GPR_IRQ_IRQHandler
 .text.eLCDIF_IRQHandler
                0x0000000000002990        0x8 ./startup/startup_mimxrt1176_cm7.o
                0x0000000000002990                eLCDIF_IRQHandler
 .text.LCDIFv2_IRQHandler
                0x0000000000002998        0x8 ./startup/startup_mimxrt1176_cm7.o
                0x0000000000002998                LCDIFv2_IRQHandler
 .text.CSI_IRQHandler
                0x00000000000029a0        0x8 ./startup/startup_mimxrt1176_cm7.o
                0x00000000000029a0                CSI_IRQHandler
 .text.PXP_IRQHandler
                0x00000000000029a8        0x8 ./startup/startup_mimxrt1176_cm7.o
                0x00000000000029a8                PXP_IRQHandler
 .text.MIPI_CSI_IRQHandler
                0x00000000000029b0        0x8 ./startup/startup_mimxrt1176_cm7.o
                0x00000000000029b0                MIPI_CSI_IRQHandler
 .text.MIPI_DSI_IRQHandler
                0x00000000000029b8        0x8 ./startup/startup_mimxrt1176_cm7.o
                0x00000000000029b8                MIPI_DSI_IRQHandler
 .text.GPU2D_IRQHandler
                0x00000000000029c0        0x8 ./startup/startup_mimxrt1176_cm7.o
                0x00000000000029c0                GPU2D_IRQHandler
 .text.GPIO6_Combined_0_15_IRQHandler
                0x00000000000029c8        0x8 ./startup/startup_mimxrt1176_cm7.o
                0x00000000000029c8                GPIO6_Combined_0_15_IRQHandler
 .text.GPIO6_Combined_16_31_IRQHandler
                0x00000000000029d0        0x8 ./startup/startup_mimxrt1176_cm7.o
                0x00000000000029d0                GPIO6_Combined_16_31_IRQHandler
 .text.DAC_IRQHandler
                0x00000000000029d8        0x8 ./startup/startup_mimxrt1176_cm7.o
                0x00000000000029d8                DAC_IRQHandler
 .text.KEY_MANAGER_IRQHandler
                0x00000000000029e0        0x8 ./startup/startup_mimxrt1176_cm7.o
                0x00000000000029e0                KEY_MANAGER_IRQHandler
 .text.WDOG2_IRQHandler
                0x00000000000029e8        0x8 ./startup/startup_mimxrt1176_cm7.o
                0x00000000000029e8                WDOG2_IRQHandler
 .text.SNVS_HP_NON_TZ_IRQHandler
                0x00000000000029f0        0x8 ./startup/startup_mimxrt1176_cm7.o
                0x00000000000029f0                SNVS_HP_NON_TZ_IRQHandler
 .text.SNVS_HP_TZ_IRQHandler
                0x00000000000029f8        0x8 ./startup/startup_mimxrt1176_cm7.o
                0x00000000000029f8                SNVS_HP_TZ_IRQHandler
 .text.SNVS_PULSE_EVENT_IRQHandler
                0x0000000000002a00        0x8 ./startup/startup_mimxrt1176_cm7.o
                0x0000000000002a00                SNVS_PULSE_EVENT_IRQHandler
 .text.CAAM_IRQ0_IRQHandler
                0x0000000000002a08        0x8 ./startup/startup_mimxrt1176_cm7.o
                0x0000000000002a08                CAAM_IRQ0_IRQHandler
 .text.CAAM_IRQ1_IRQHandler
                0x0000000000002a10        0x8 ./startup/startup_mimxrt1176_cm7.o
                0x0000000000002a10                CAAM_IRQ1_IRQHandler
 .text.CAAM_IRQ2_IRQHandler
                0x0000000000002a18        0x8 ./startup/startup_mimxrt1176_cm7.o
                0x0000000000002a18                CAAM_IRQ2_IRQHandler
 .text.CAAM_IRQ3_IRQHandler
                0x0000000000002a20        0x8 ./startup/startup_mimxrt1176_cm7.o
                0x0000000000002a20                CAAM_IRQ3_IRQHandler
 .text.CAAM_RECORVE_ERRPR_IRQHandler
                0x0000000000002a28        0x8 ./startup/startup_mimxrt1176_cm7.o
                0x0000000000002a28                CAAM_RECORVE_ERRPR_IRQHandler
 .text.CAAM_RTIC_IRQHandler
                0x0000000000002a30        0x8 ./startup/startup_mimxrt1176_cm7.o
                0x0000000000002a30                CAAM_RTIC_IRQHandler
 .text.CDOG_IRQHandler
                0x0000000000002a38        0x8 ./startup/startup_mimxrt1176_cm7.o
                0x0000000000002a38                CDOG_IRQHandler
 .text.SAI1_IRQHandler
                0x0000000000002a40        0x8 ./startup/startup_mimxrt1176_cm7.o
                0x0000000000002a40                SAI1_IRQHandler
 .text.SAI2_IRQHandler
                0x0000000000002a48        0x8 ./startup/startup_mimxrt1176_cm7.o
                0x0000000000002a48                SAI2_IRQHandler
 .text.SAI3_RX_IRQHandler
                0x0000000000002a50        0x8 ./startup/startup_mimxrt1176_cm7.o
                0x0000000000002a50                SAI3_RX_IRQHandler
 .text.SAI3_TX_IRQHandler
                0x0000000000002a58        0x8 ./startup/startup_mimxrt1176_cm7.o
                0x0000000000002a58                SAI3_TX_IRQHandler
 .text.SAI4_RX_IRQHandler
                0x0000000000002a60        0x8 ./startup/startup_mimxrt1176_cm7.o
                0x0000000000002a60                SAI4_RX_IRQHandler
 .text.SAI4_TX_IRQHandler
                0x0000000000002a68        0x8 ./startup/startup_mimxrt1176_cm7.o
                0x0000000000002a68                SAI4_TX_IRQHandler
 .text.SPDIF_IRQHandler
                0x0000000000002a70        0x8 ./startup/startup_mimxrt1176_cm7.o
                0x0000000000002a70                SPDIF_IRQHandler
 .text.TMPSNS_INT_IRQHandler
                0x0000000000002a78        0x8 ./startup/startup_mimxrt1176_cm7.o
                0x0000000000002a78                TMPSNS_INT_IRQHandler
 .text.TMPSNS_LOW_HIGH_IRQHandler
                0x0000000000002a80        0x8 ./startup/startup_mimxrt1176_cm7.o
                0x0000000000002a80                TMPSNS_LOW_HIGH_IRQHandler
 .text.TMPSNS_PANIC_IRQHandler
                0x0000000000002a88        0x8 ./startup/startup_mimxrt1176_cm7.o
                0x0000000000002a88                TMPSNS_PANIC_IRQHandler
 .text.LPSR_LP8_BROWNOUT_IRQHandler
                0x0000000000002a90        0x8 ./startup/startup_mimxrt1176_cm7.o
                0x0000000000002a90                LPSR_LP8_BROWNOUT_IRQHandler
 .text.LPSR_LP0_BROWNOUT_IRQHandler
                0x0000000000002a98        0x8 ./startup/startup_mimxrt1176_cm7.o
                0x0000000000002a98                LPSR_LP0_BROWNOUT_IRQHandler
 .text.ADC1_IRQHandler
                0x0000000000002aa0        0x8 ./startup/startup_mimxrt1176_cm7.o
                0x0000000000002aa0                ADC1_IRQHandler
 .text.ADC2_IRQHandler
                0x0000000000002aa8        0x8 ./startup/startup_mimxrt1176_cm7.o
                0x0000000000002aa8                ADC2_IRQHandler
 .text.USBPHY1_IRQHandler
                0x0000000000002ab0        0x8 ./startup/startup_mimxrt1176_cm7.o
                0x0000000000002ab0                USBPHY1_IRQHandler
 .text.USBPHY2_IRQHandler
                0x0000000000002ab8        0x8 ./startup/startup_mimxrt1176_cm7.o
                0x0000000000002ab8                USBPHY2_IRQHandler
 .text.RDC_IRQHandler
                0x0000000000002ac0        0x8 ./startup/startup_mimxrt1176_cm7.o
                0x0000000000002ac0                RDC_IRQHandler
 .text.GPIO13_Combined_0_31_IRQHandler
                0x0000000000002ac8        0x8 ./startup/startup_mimxrt1176_cm7.o
                0x0000000000002ac8                GPIO13_Combined_0_31_IRQHandler
 .text.Reserved110_IRQHandler
                0x0000000000002ad0        0x8 ./startup/startup_mimxrt1176_cm7.o
                0x0000000000002ad0                Reserved110_IRQHandler
 .text.DCIC1_IRQHandler
                0x0000000000002ad8        0x8 ./startup/startup_mimxrt1176_cm7.o
                0x0000000000002ad8                DCIC1_IRQHandler
 .text.DCIC2_IRQHandler
                0x0000000000002ae0        0x8 ./startup/startup_mimxrt1176_cm7.o
                0x0000000000002ae0                DCIC2_IRQHandler
 .text.ASRC_IRQHandler
                0x0000000000002ae8        0x8 ./startup/startup_mimxrt1176_cm7.o
                0x0000000000002ae8                ASRC_IRQHandler
 .text.FLEXRAM_ECC_IRQHandler
                0x0000000000002af0        0x8 ./startup/startup_mimxrt1176_cm7.o
                0x0000000000002af0                FLEXRAM_ECC_IRQHandler
 .text.CM7_GPIO2_3_IRQHandler
                0x0000000000002af8        0x8 ./startup/startup_mimxrt1176_cm7.o
                0x0000000000002af8                CM7_GPIO2_3_IRQHandler
 .text.GPIO1_Combined_0_15_IRQHandler
                0x0000000000002b00        0x8 ./startup/startup_mimxrt1176_cm7.o
                0x0000000000002b00                GPIO1_Combined_0_15_IRQHandler
 .text.GPIO1_Combined_16_31_IRQHandler
                0x0000000000002b08        0x8 ./startup/startup_mimxrt1176_cm7.o
                0x0000000000002b08                GPIO1_Combined_16_31_IRQHandler
 .text.GPIO2_Combined_0_15_IRQHandler
                0x0000000000002b10        0x8 ./startup/startup_mimxrt1176_cm7.o
                0x0000000000002b10                GPIO2_Combined_0_15_IRQHandler
 .text.GPIO2_Combined_16_31_IRQHandler
                0x0000000000002b18        0x8 ./startup/startup_mimxrt1176_cm7.o
                0x0000000000002b18                GPIO2_Combined_16_31_IRQHandler
 .text.GPIO3_Combined_0_15_IRQHandler
                0x0000000000002b20        0x8 ./startup/startup_mimxrt1176_cm7.o
                0x0000000000002b20                GPIO3_Combined_0_15_IRQHandler
 .text.GPIO3_Combined_16_31_IRQHandler
                0x0000000000002b28        0x8 ./startup/startup_mimxrt1176_cm7.o
                0x0000000000002b28                GPIO3_Combined_16_31_IRQHandler
 .text.GPIO4_Combined_0_15_IRQHandler
                0x0000000000002b30        0x8 ./startup/startup_mimxrt1176_cm7.o
                0x0000000000002b30                GPIO4_Combined_0_15_IRQHandler
 .text.GPIO4_Combined_16_31_IRQHandler
                0x0000000000002b38        0x8 ./startup/startup_mimxrt1176_cm7.o
                0x0000000000002b38                GPIO4_Combined_16_31_IRQHandler
 .text.GPIO5_Combined_0_15_IRQHandler
                0x0000000000002b40        0x8 ./startup/startup_mimxrt1176_cm7.o
                0x0000000000002b40                GPIO5_Combined_0_15_IRQHandler
 .text.GPIO5_Combined_16_31_IRQHandler
                0x0000000000002b48        0x8 ./startup/startup_mimxrt1176_cm7.o
                0x0000000000002b48                GPIO5_Combined_16_31_IRQHandler
 .text.FLEXIO1_IRQHandler
                0x0000000000002b50        0x8 ./startup/startup_mimxrt1176_cm7.o
                0x0000000000002b50                FLEXIO1_IRQHandler
 .text.FLEXIO2_IRQHandler
                0x0000000000002b58        0x8 ./startup/startup_mimxrt1176_cm7.o
                0x0000000000002b58                FLEXIO2_IRQHandler
 .text.WDOG1_IRQHandler
                0x0000000000002b60        0x8 ./startup/startup_mimxrt1176_cm7.o
                0x0000000000002b60                WDOG1_IRQHandler
 .text.RTWDOG3_IRQHandler
                0x0000000000002b68        0x8 ./startup/startup_mimxrt1176_cm7.o
                0x0000000000002b68                RTWDOG3_IRQHandler
 .text.EWM_IRQHandler
                0x0000000000002b70        0x8 ./startup/startup_mimxrt1176_cm7.o
                0x0000000000002b70                EWM_IRQHandler
 .text.OCOTP_READ_FUSE_ERROR_IRQHandler
                0x0000000000002b78        0x8 ./startup/startup_mimxrt1176_cm7.o
                0x0000000000002b78                OCOTP_READ_FUSE_ERROR_IRQHandler
 .text.OCOTP_READ_DONE_ERROR_IRQHandler
                0x0000000000002b80        0x8 ./startup/startup_mimxrt1176_cm7.o
                0x0000000000002b80                OCOTP_READ_DONE_ERROR_IRQHandler
 .text.GPC_IRQHandler
                0x0000000000002b88        0x8 ./startup/startup_mimxrt1176_cm7.o
                0x0000000000002b88                GPC_IRQHandler
 .text.MUA_IRQHandler
                0x0000000000002b90        0x8 ./startup/startup_mimxrt1176_cm7.o
                0x0000000000002b90                MUA_IRQHandler
 .text.GPT1_IRQHandler
                0x0000000000002b98        0x8 ./startup/startup_mimxrt1176_cm7.o
                0x0000000000002b98                GPT1_IRQHandler
 .text.GPT2_IRQHandler
                0x0000000000002ba0        0x8 ./startup/startup_mimxrt1176_cm7.o
                0x0000000000002ba0                GPT2_IRQHandler
 .text.GPT3_IRQHandler
                0x0000000000002ba8        0x8 ./startup/startup_mimxrt1176_cm7.o
                0x0000000000002ba8                GPT3_IRQHandler
 .text.GPT4_IRQHandler
                0x0000000000002bb0        0x8 ./startup/startup_mimxrt1176_cm7.o
                0x0000000000002bb0                GPT4_IRQHandler
 .text.GPT5_IRQHandler
                0x0000000000002bb8        0x8 ./startup/startup_mimxrt1176_cm7.o
                0x0000000000002bb8                GPT5_IRQHandler
 .text.GPT6_IRQHandler
                0x0000000000002bc0        0x8 ./startup/startup_mimxrt1176_cm7.o
                0x0000000000002bc0                GPT6_IRQHandler
 .text.PWM1_0_IRQHandler
                0x0000000000002bc8        0x8 ./startup/startup_mimxrt1176_cm7.o
                0x0000000000002bc8                PWM1_0_IRQHandler
 .text.PWM1_1_IRQHandler
                0x0000000000002bd0        0x8 ./startup/startup_mimxrt1176_cm7.o
                0x0000000000002bd0                PWM1_1_IRQHandler
 .text.PWM1_2_IRQHandler
                0x0000000000002bd8        0x8 ./startup/startup_mimxrt1176_cm7.o
                0x0000000000002bd8                PWM1_2_IRQHandler
 .text.PWM1_3_IRQHandler
                0x0000000000002be0        0x8 ./startup/startup_mimxrt1176_cm7.o
                0x0000000000002be0                PWM1_3_IRQHandler
 .text.PWM1_FAULT_IRQHandler
                0x0000000000002be8        0x8 ./startup/startup_mimxrt1176_cm7.o
                0x0000000000002be8                PWM1_FAULT_IRQHandler
 .text.FLEXSPI1_IRQHandler
                0x0000000000002bf0        0x8 ./startup/startup_mimxrt1176_cm7.o
                0x0000000000002bf0                FLEXSPI1_IRQHandler
 .text.FLEXSPI2_IRQHandler
                0x0000000000002bf8        0x8 ./startup/startup_mimxrt1176_cm7.o
                0x0000000000002bf8                FLEXSPI2_IRQHandler
 .text.SEMC_IRQHandler
                0x0000000000002c00        0x8 ./startup/startup_mimxrt1176_cm7.o
                0x0000000000002c00                SEMC_IRQHandler
 .text.USDHC1_IRQHandler
                0x0000000000002c08        0x8 ./startup/startup_mimxrt1176_cm7.o
                0x0000000000002c08                USDHC1_IRQHandler
 .text.USDHC2_IRQHandler
                0x0000000000002c10        0x8 ./startup/startup_mimxrt1176_cm7.o
                0x0000000000002c10                USDHC2_IRQHandler
 .text.USB_OTG2_IRQHandler
                0x0000000000002c18        0x8 ./startup/startup_mimxrt1176_cm7.o
                0x0000000000002c18                USB_OTG2_IRQHandler
 .text.USB_OTG1_IRQHandler
                0x0000000000002c20        0x8 ./startup/startup_mimxrt1176_cm7.o
                0x0000000000002c20                USB_OTG1_IRQHandler
 .text.ENET_IRQHandler
                0x0000000000002c28        0x8 ./startup/startup_mimxrt1176_cm7.o
                0x0000000000002c28                ENET_IRQHandler
 .text.ENET_1588_Timer_IRQHandler
                0x0000000000002c30        0x8 ./startup/startup_mimxrt1176_cm7.o
                0x0000000000002c30                ENET_1588_Timer_IRQHandler
 .text.ENET_1G_MAC0_Tx_Rx_1_IRQHandler
                0x0000000000002c38        0x8 ./startup/startup_mimxrt1176_cm7.o
                0x0000000000002c38                ENET_1G_MAC0_Tx_Rx_1_IRQHandler
 .text.ENET_1G_MAC0_Tx_Rx_2_IRQHandler
                0x0000000000002c40        0x8 ./startup/startup_mimxrt1176_cm7.o
                0x0000000000002c40                ENET_1G_MAC0_Tx_Rx_2_IRQHandler
 .text.ENET_1G_IRQHandler
                0x0000000000002c48        0x8 ./startup/startup_mimxrt1176_cm7.o
                0x0000000000002c48                ENET_1G_IRQHandler
 .text.ENET_1G_1588_Timer_IRQHandler
                0x0000000000002c50        0x8 ./startup/startup_mimxrt1176_cm7.o
                0x0000000000002c50                ENET_1G_1588_Timer_IRQHandler
 .text.XBAR1_IRQ_0_1_IRQHandler
                0x0000000000002c58        0x8 ./startup/startup_mimxrt1176_cm7.o
                0x0000000000002c58                XBAR1_IRQ_0_1_IRQHandler
 .text.XBAR1_IRQ_2_3_IRQHandler
                0x0000000000002c60        0x8 ./startup/startup_mimxrt1176_cm7.o
                0x0000000000002c60                XBAR1_IRQ_2_3_IRQHandler
 .text.ADC_ETC_IRQ0_IRQHandler
                0x0000000000002c68        0x8 ./startup/startup_mimxrt1176_cm7.o
                0x0000000000002c68                ADC_ETC_IRQ0_IRQHandler
 .text.ADC_ETC_IRQ1_IRQHandler
                0x0000000000002c70        0x8 ./startup/startup_mimxrt1176_cm7.o
                0x0000000000002c70                ADC_ETC_IRQ1_IRQHandler
 .text.ADC_ETC_IRQ2_IRQHandler
                0x0000000000002c78        0x8 ./startup/startup_mimxrt1176_cm7.o
                0x0000000000002c78                ADC_ETC_IRQ2_IRQHandler
 .text.ADC_ETC_IRQ3_IRQHandler
                0x0000000000002c80        0x8 ./startup/startup_mimxrt1176_cm7.o
                0x0000000000002c80                ADC_ETC_IRQ3_IRQHandler
 .text.ADC_ETC_ERROR_IRQ_IRQHandler
                0x0000000000002c88        0x8 ./startup/startup_mimxrt1176_cm7.o
                0x0000000000002c88                ADC_ETC_ERROR_IRQ_IRQHandler
 .text.Reserved166_IRQHandler
                0x0000000000002c90        0x8 ./startup/startup_mimxrt1176_cm7.o
                0x0000000000002c90                Reserved166_IRQHandler
 .text.Reserved167_IRQHandler
                0x0000000000002c98        0x8 ./startup/startup_mimxrt1176_cm7.o
                0x0000000000002c98                Reserved167_IRQHandler
 .text.Reserved168_IRQHandler
                0x0000000000002ca0        0x8 ./startup/startup_mimxrt1176_cm7.o
                0x0000000000002ca0                Reserved168_IRQHandler
 .text.Reserved169_IRQHandler
                0x0000000000002ca8        0x8 ./startup/startup_mimxrt1176_cm7.o
                0x0000000000002ca8                Reserved169_IRQHandler
 .text.Reserved170_IRQHandler
                0x0000000000002cb0        0x8 ./startup/startup_mimxrt1176_cm7.o
                0x0000000000002cb0                Reserved170_IRQHandler
 .text.PIT1_IRQHandler
                0x0000000000002cb8        0x8 ./startup/startup_mimxrt1176_cm7.o
                0x0000000000002cb8                PIT1_IRQHandler
 .text.PIT2_IRQHandler
                0x0000000000002cc0        0x8 ./startup/startup_mimxrt1176_cm7.o
                0x0000000000002cc0                PIT2_IRQHandler
 .text.ACMP1_IRQHandler
                0x0000000000002cc8        0x8 ./startup/startup_mimxrt1176_cm7.o
                0x0000000000002cc8                ACMP1_IRQHandler
 .text.ACMP2_IRQHandler
                0x0000000000002cd0        0x8 ./startup/startup_mimxrt1176_cm7.o
                0x0000000000002cd0                ACMP2_IRQHandler
 .text.ACMP3_IRQHandler
                0x0000000000002cd8        0x8 ./startup/startup_mimxrt1176_cm7.o
                0x0000000000002cd8                ACMP3_IRQHandler
 .text.ACMP4_IRQHandler
                0x0000000000002ce0        0x8 ./startup/startup_mimxrt1176_cm7.o
                0x0000000000002ce0                ACMP4_IRQHandler
 .text.Reserved177_IRQHandler
                0x0000000000002ce8        0x8 ./startup/startup_mimxrt1176_cm7.o
                0x0000000000002ce8                Reserved177_IRQHandler
 .text.Reserved178_IRQHandler
                0x0000000000002cf0        0x8 ./startup/startup_mimxrt1176_cm7.o
                0x0000000000002cf0                Reserved178_IRQHandler
 .text.Reserved179_IRQHandler
                0x0000000000002cf8        0x8 ./startup/startup_mimxrt1176_cm7.o
                0x0000000000002cf8                Reserved179_IRQHandler
 .text.Reserved180_IRQHandler
                0x0000000000002d00        0x8 ./startup/startup_mimxrt1176_cm7.o
                0x0000000000002d00                Reserved180_IRQHandler
 .text.ENC1_IRQHandler
                0x0000000000002d08        0x8 ./startup/startup_mimxrt1176_cm7.o
                0x0000000000002d08                ENC1_IRQHandler
 .text.ENC2_IRQHandler
                0x0000000000002d10        0x8 ./startup/startup_mimxrt1176_cm7.o
                0x0000000000002d10                ENC2_IRQHandler
 .text.ENC3_IRQHandler
                0x0000000000002d18        0x8 ./startup/startup_mimxrt1176_cm7.o
                0x0000000000002d18                ENC3_IRQHandler
 .text.ENC4_IRQHandler
                0x0000000000002d20        0x8 ./startup/startup_mimxrt1176_cm7.o
                0x0000000000002d20                ENC4_IRQHandler
 .text.Reserved185_IRQHandler
                0x0000000000002d28        0x8 ./startup/startup_mimxrt1176_cm7.o
                0x0000000000002d28                Reserved185_IRQHandler
 .text.Reserved186_IRQHandler
                0x0000000000002d30        0x8 ./startup/startup_mimxrt1176_cm7.o
                0x0000000000002d30                Reserved186_IRQHandler
 .text.TMR1_IRQHandler
                0x0000000000002d38        0x8 ./startup/startup_mimxrt1176_cm7.o
                0x0000000000002d38                TMR1_IRQHandler
 .text.TMR2_IRQHandler
                0x0000000000002d40        0x8 ./startup/startup_mimxrt1176_cm7.o
                0x0000000000002d40                TMR2_IRQHandler
 .text.TMR3_IRQHandler
                0x0000000000002d48        0x8 ./startup/startup_mimxrt1176_cm7.o
                0x0000000000002d48                TMR3_IRQHandler
 .text.TMR4_IRQHandler
                0x0000000000002d50        0x8 ./startup/startup_mimxrt1176_cm7.o
                0x0000000000002d50                TMR4_IRQHandler
 .text.SEMA4_CP0_IRQHandler
                0x0000000000002d58        0x8 ./startup/startup_mimxrt1176_cm7.o
                0x0000000000002d58                SEMA4_CP0_IRQHandler
 .text.SEMA4_CP1_IRQHandler
                0x0000000000002d60        0x8 ./startup/startup_mimxrt1176_cm7.o
                0x0000000000002d60                SEMA4_CP1_IRQHandler
 .text.PWM2_0_IRQHandler
                0x0000000000002d68        0x8 ./startup/startup_mimxrt1176_cm7.o
                0x0000000000002d68                PWM2_0_IRQHandler
 .text.PWM2_1_IRQHandler
                0x0000000000002d70        0x8 ./startup/startup_mimxrt1176_cm7.o
                0x0000000000002d70                PWM2_1_IRQHandler
 .text.PWM2_2_IRQHandler
                0x0000000000002d78        0x8 ./startup/startup_mimxrt1176_cm7.o
                0x0000000000002d78                PWM2_2_IRQHandler
 .text.PWM2_3_IRQHandler
                0x0000000000002d80        0x8 ./startup/startup_mimxrt1176_cm7.o
                0x0000000000002d80                PWM2_3_IRQHandler
 .text.PWM2_FAULT_IRQHandler
                0x0000000000002d88        0x8 ./startup/startup_mimxrt1176_cm7.o
                0x0000000000002d88                PWM2_FAULT_IRQHandler
 .text.PWM3_0_IRQHandler
                0x0000000000002d90        0x8 ./startup/startup_mimxrt1176_cm7.o
                0x0000000000002d90                PWM3_0_IRQHandler
 .text.PWM3_1_IRQHandler
                0x0000000000002d98        0x8 ./startup/startup_mimxrt1176_cm7.o
                0x0000000000002d98                PWM3_1_IRQHandler
 .text.PWM3_2_IRQHandler
                0x0000000000002da0        0x8 ./startup/startup_mimxrt1176_cm7.o
                0x0000000000002da0                PWM3_2_IRQHandler
 .text.PWM3_3_IRQHandler
                0x0000000000002da8        0x8 ./startup/startup_mimxrt1176_cm7.o
                0x0000000000002da8                PWM3_3_IRQHandler
 .text.PWM3_FAULT_IRQHandler
                0x0000000000002db0        0x8 ./startup/startup_mimxrt1176_cm7.o
                0x0000000000002db0                PWM3_FAULT_IRQHandler
 .text.PWM4_0_IRQHandler
                0x0000000000002db8        0x8 ./startup/startup_mimxrt1176_cm7.o
                0x0000000000002db8                PWM4_0_IRQHandler
 .text.PWM4_1_IRQHandler
                0x0000000000002dc0        0x8 ./startup/startup_mimxrt1176_cm7.o
                0x0000000000002dc0                PWM4_1_IRQHandler
 .text.PWM4_2_IRQHandler
                0x0000000000002dc8        0x8 ./startup/startup_mimxrt1176_cm7.o
                0x0000000000002dc8                PWM4_2_IRQHandler
 .text.PWM4_3_IRQHandler
                0x0000000000002dd0        0x8 ./startup/startup_mimxrt1176_cm7.o
                0x0000000000002dd0                PWM4_3_IRQHandler
 .text.PWM4_FAULT_IRQHandler
                0x0000000000002dd8        0x8 ./startup/startup_mimxrt1176_cm7.o
                0x0000000000002dd8                PWM4_FAULT_IRQHandler
 .text.Reserved208_IRQHandler
                0x0000000000002de0        0x8 ./startup/startup_mimxrt1176_cm7.o
                0x0000000000002de0                Reserved208_IRQHandler
 .text.Reserved209_IRQHandler
                0x0000000000002de8        0x8 ./startup/startup_mimxrt1176_cm7.o
                0x0000000000002de8                Reserved209_IRQHandler
 .text.Reserved210_IRQHandler
                0x0000000000002df0        0x8 ./startup/startup_mimxrt1176_cm7.o
                0x0000000000002df0                Reserved210_IRQHandler
 .text.Reserved211_IRQHandler
                0x0000000000002df8        0x8 ./startup/startup_mimxrt1176_cm7.o
                0x0000000000002df8                Reserved211_IRQHandler
 .text.Reserved212_IRQHandler
                0x0000000000002e00        0x8 ./startup/startup_mimxrt1176_cm7.o
                0x0000000000002e00                Reserved212_IRQHandler
 .text.Reserved213_IRQHandler
                0x0000000000002e08        0x8 ./startup/startup_mimxrt1176_cm7.o
                0x0000000000002e08                Reserved213_IRQHandler
 .text.Reserved214_IRQHandler
                0x0000000000002e10        0x8 ./startup/startup_mimxrt1176_cm7.o
                0x0000000000002e10                Reserved214_IRQHandler
 .text.Reserved215_IRQHandler
                0x0000000000002e18        0x8 ./startup/startup_mimxrt1176_cm7.o
                0x0000000000002e18                Reserved215_IRQHandler
 .text.PDM_HWVAD_EVENT_IRQHandler
                0x0000000000002e20        0x8 ./startup/startup_mimxrt1176_cm7.o
                0x0000000000002e20                PDM_HWVAD_EVENT_IRQHandler
 .text.PDM_HWVAD_ERROR_IRQHandler
                0x0000000000002e28        0x8 ./startup/startup_mimxrt1176_cm7.o
                0x0000000000002e28                PDM_HWVAD_ERROR_IRQHandler
 .text.PDM_EVENT_IRQHandler
                0x0000000000002e30        0x8 ./startup/startup_mimxrt1176_cm7.o
                0x0000000000002e30                PDM_EVENT_IRQHandler
 .text.PDM_ERROR_IRQHandler
                0x0000000000002e38        0x8 ./startup/startup_mimxrt1176_cm7.o
                0x0000000000002e38                PDM_ERROR_IRQHandler
 .text.EMVSIM1_IRQHandler
                0x0000000000002e40        0x8 ./startup/startup_mimxrt1176_cm7.o
                0x0000000000002e40                EMVSIM1_IRQHandler
 .text.EMVSIM2_IRQHandler
                0x0000000000002e48        0x8 ./startup/startup_mimxrt1176_cm7.o
                0x0000000000002e48                EMVSIM2_IRQHandler
 .text.MECC1_INT_IRQHandler
                0x0000000000002e50        0x8 ./startup/startup_mimxrt1176_cm7.o
                0x0000000000002e50                MECC1_INT_IRQHandler
 .text.MECC1_FATAL_INT_IRQHandler
                0x0000000000002e58        0x8 ./startup/startup_mimxrt1176_cm7.o
                0x0000000000002e58                MECC1_FATAL_INT_IRQHandler
 .text.MECC2_INT_IRQHandler
                0x0000000000002e60        0x8 ./startup/startup_mimxrt1176_cm7.o
                0x0000000000002e60                MECC2_INT_IRQHandler
 .text.MECC2_FATAL_INT_IRQHandler
                0x0000000000002e68        0x8 ./startup/startup_mimxrt1176_cm7.o
                0x0000000000002e68                MECC2_FATAL_INT_IRQHandler
 .text.XECC_FLEXSPI1_INT_IRQHandler
                0x0000000000002e70        0x8 ./startup/startup_mimxrt1176_cm7.o
                0x0000000000002e70                XECC_FLEXSPI1_INT_IRQHandler
 .text.XECC_FLEXSPI1_FATAL_INT_IRQHandler
                0x0000000000002e78        0x8 ./startup/startup_mimxrt1176_cm7.o
                0x0000000000002e78                XECC_FLEXSPI1_FATAL_INT_IRQHandler
 .text.XECC_FLEXSPI2_INT_IRQHandler
                0x0000000000002e80        0x8 ./startup/startup_mimxrt1176_cm7.o
                0x0000000000002e80                XECC_FLEXSPI2_INT_IRQHandler
 .text.XECC_FLEXSPI2_FATAL_INT_IRQHandler
                0x0000000000002e88        0x8 ./startup/startup_mimxrt1176_cm7.o
                0x0000000000002e88                XECC_FLEXSPI2_FATAL_INT_IRQHandler
 .text.XECC_SEMC_INT_IRQHandler
                0x0000000000002e90        0x8 ./startup/startup_mimxrt1176_cm7.o
                0x0000000000002e90                XECC_SEMC_INT_IRQHandler
 .text.XECC_SEMC_FATAL_INT_IRQHandler
                0x0000000000002e98        0x8 ./startup/startup_mimxrt1176_cm7.o
                0x0000000000002e98                XECC_SEMC_FATAL_INT_IRQHandler
 .text.ENET_QOS_IRQHandler
                0x0000000000002ea0        0x8 ./startup/startup_mimxrt1176_cm7.o
                0x0000000000002ea0                ENET_QOS_IRQHandler
 .text.ENET_QOS_PMT_IRQHandler
                0x0000000000002ea8        0x8 ./startup/startup_mimxrt1176_cm7.o
                0x0000000000002ea8                ENET_QOS_PMT_IRQHandler
 .text.HardFault_Handler
                0x0000000000002eb0       0x2a ./source/semihost_hardfault.o
                0x0000000000002eb0                HardFault_Handler
 .text.ANATOP_AI_Write
                0x0000000000002eda        0xa ./drivers/fsl_anatop_ai.o
                0x0000000000002eda                ANATOP_AI_Write
 .text.ANATOP_AI_Read
                0x0000000000002ee4        0xa ./drivers/fsl_anatop_ai.o
                0x0000000000002ee4                ANATOP_AI_Read
 .text.ANATOP_AI_WriteWithMaskShift
                0x0000000000002eee       0x2c ./drivers/fsl_anatop_ai.o
                0x0000000000002eee                ANATOP_AI_WriteWithMaskShift
 .text.ANATOP_PllBypass
                0x0000000000002f1a       0x10 ./drivers/fsl_clock.o
 .text.ANATOP_PllEnableClk
                0x0000000000002f2a       0x10 ./drivers/fsl_clock.o
 .text.CLOCK_OSC_Set1MHzOutputBehavior
                0x0000000000002f3a       0x2c ./drivers/fsl_clock.o
                0x0000000000002f3a                CLOCK_OSC_Set1MHzOutputBehavior
 .text.DCDC_BootIntoDCM
                0x0000000000002f66       0x3a ./drivers/fsl_dcdc.o
                0x0000000000002f66                DCDC_BootIntoDCM
 .text.LPUART_GetDefaultConfig
                0x0000000000002fa0       0x1e ./drivers/fsl_lpuart.o
                0x0000000000002fa0                LPUART_GetDefaultConfig
 .text.LPUART_WriteBlocking
                0x0000000000002fbe       0x1e ./drivers/fsl_lpuart.o
                0x0000000000002fbe                LPUART_WriteBlocking
 .text.PMU_EnableBodyBias
                0x0000000000002fdc       0xa4 ./drivers/fsl_pmu.o
                0x0000000000002fdc                PMU_EnableBodyBias
 .text.SystemInitHook
                0x0000000000003080        0x2 ./device/system_MIMXRT1176_cm7.o
                0x0000000000003080                SystemInitHook
 .text.SerialManager_Init
                0x0000000000003082       0x2a ./component/serial_manager/fsl_component_serial_manager.o
                0x0000000000003082                SerialManager_Init
 .text.SerialManager_OpenWriteHandle
                0x00000000000030ac       0x26 ./component/serial_manager/fsl_component_serial_manager.o
                0x00000000000030ac                SerialManager_OpenWriteHandle
 .text.SerialManager_OpenReadHandle
                0x00000000000030d2       0x2c ./component/serial_manager/fsl_component_serial_manager.o
                0x00000000000030d2                SerialManager_OpenReadHandle
 .text.SerialManager_WriteBlocking
                0x00000000000030fe       0x14 ./component/serial_manager/fsl_component_serial_manager.o
                0x00000000000030fe                SerialManager_WriteBlocking
 .text.Serial_UartInit
                0x0000000000003112        0x4 ./component/serial_manager/fsl_component_serial_port_uart.o
                0x0000000000003112                Serial_UartInit
 .text.Serial_UartWrite
                0x0000000000003116        0x4 ./component/serial_manager/fsl_component_serial_port_uart.o
                0x0000000000003116                Serial_UartWrite
 .text.BOARD_InitDebugConsole
                0x000000000000311a       0x18 ./board/board.o
                0x000000000000311a                BOARD_InitDebugConsole
 .text.BOARD_InitBootClocks
                0x0000000000003132        0x4 ./board/clock_config.o
                0x0000000000003132                BOARD_InitBootClocks
 .text.BOARD_InitBootPeripherals
                0x0000000000003136        0x2 ./board/peripherals.o
                0x0000000000003136                BOARD_InitBootPeripherals
 .text.BOARD_InitBootPins
                0x0000000000003138        0x4 ./board/pin_mux.o
                0x0000000000003138                BOARD_InitBootPins
 .text.__main   0x000000000000313c        0xe /Applications/MCUXpressoIDE_11.7.0_9198/ide/plugins/com.nxp.mcuxpresso.tools.macosx_11.7.0.202209140929/tools/bin/../lib/gcc/arm-none-eabi/10.3.1/../../../../arm-none-eabi/lib/thumb/v7e-m+fp/hard/libcr_nohost_nf.a(_cr__main.o)
                0x000000000000313c                __main
 .text.memcpy   0x000000000000314a        0x4 /Applications/MCUXpressoIDE_11.7.0_9198/ide/plugins/com.nxp.mcuxpresso.tools.macosx_11.7.0.202209140929/tools/bin/../lib/gcc/arm-none-eabi/10.3.1/../../../../arm-none-eabi/lib/thumb/v7e-m+fp/hard/libcr_c.a(memcpy.o)
                0x000000000000314a                memcpy
 .text.memset   0x000000000000314e        0x4 /Applications/MCUXpressoIDE_11.7.0_9198/ide/plugins/com.nxp.mcuxpresso.tools.macosx_11.7.0.202209140929/tools/bin/../lib/gcc/arm-none-eabi/10.3.1/../../../../arm-none-eabi/lib/thumb/v7e-m+fp/hard/libcr_c.a(memset.o)
                0x000000000000314e                memset
 .text.free     0x0000000000003152       0x30 /Applications/MCUXpressoIDE_11.7.0_9198/ide/plugins/com.nxp.mcuxpresso.tools.macosx_11.7.0.202209140929/tools/bin/../lib/gcc/arm-none-eabi/10.3.1/../../../../arm-none-eabi/lib/thumb/v7e-m+fp/hard/libcr_c.a(alloc.o)
                0x0000000000003152                free
 .text.setvbuf  0x0000000000003182       0x3e /Applications/MCUXpressoIDE_11.7.0_9198/ide/plugins/com.nxp.mcuxpresso.tools.macosx_11.7.0.202209140929/tools/bin/../lib/gcc/arm-none-eabi/10.3.1/../../../../arm-none-eabi/lib/thumb/v7e-m+fp/hard/libcr_c.a(setvbuf.o)
                0x0000000000003182                setvbuf
 .text.strlen   0x00000000000031c0       0x48 /Applications/MCUXpressoIDE_11.7.0_9198/ide/plugins/com.nxp.mcuxpresso.tools.macosx_11.7.0.202209140929/tools/bin/../lib/gcc/arm-none-eabi/10.3.1/../../../../arm-none-eabi/lib/thumb/v7e-m+fp/hard/libcr_c.a(strlen.o)
                0x00000000000031c0                strlen
 .text._deferredlazyseek
                0x0000000000003208       0x40 /Applications/MCUXpressoIDE_11.7.0_9198/ide/plugins/com.nxp.mcuxpresso.tools.macosx_11.7.0.202209140929/tools/bin/../lib/gcc/arm-none-eabi/10.3.1/../../../../arm-none-eabi/lib/thumb/v7e-m+fp/hard/libcr_c.a(_deferredlazyseek.o)
                0x0000000000003208                _deferredlazyseek
 .text._fdopen  0x0000000000003248       0x68 /Applications/MCUXpressoIDE_11.7.0_9198/ide/plugins/com.nxp.mcuxpresso.tools.macosx_11.7.0.202209140929/tools/bin/../lib/gcc/arm-none-eabi/10.3.1/../../../../arm-none-eabi/lib/thumb/v7e-m+fp/hard/libcr_c.a(_fdopen.o)
                0x0000000000003248                _fdopen
 .text._fflush  0x00000000000032b0       0x52 /Applications/MCUXpressoIDE_11.7.0_9198/ide/plugins/com.nxp.mcuxpresso.tools.macosx_11.7.0.202209140929/tools/bin/../lib/gcc/arm-none-eabi/10.3.1/../../../../arm-none-eabi/lib/thumb/v7e-m+fp/hard/libcr_c.a(_fflush.o)
                0x00000000000032b0                _fflush
 .text.fclose   0x0000000000003302       0x58 /Applications/MCUXpressoIDE_11.7.0_9198/ide/plugins/com.nxp.mcuxpresso.tools.macosx_11.7.0.202209140929/tools/bin/../lib/gcc/arm-none-eabi/10.3.1/../../../../arm-none-eabi/lib/thumb/v7e-m+fp/hard/libcr_c.a(fclose.o)
                0x0000000000003302                fclose
 .text.remove   0x000000000000335a       0x14 /Applications/MCUXpressoIDE_11.7.0_9198/ide/plugins/com.nxp.mcuxpresso.tools.macosx_11.7.0.202209140929/tools/bin/../lib/gcc/arm-none-eabi/10.3.1/../../../../arm-none-eabi/lib/thumb/v7e-m+fp/hard/libcr_c.a(remove.o)
                0x000000000000335a                remove
 .text._do_fflush
                0x000000000000336e       0x40 /Applications/MCUXpressoIDE_11.7.0_9198/ide/plugins/com.nxp.mcuxpresso.tools.macosx_11.7.0.202209140929/tools/bin/../lib/gcc/arm-none-eabi/10.3.1/../../../../arm-none-eabi/lib/thumb/v7e-m+fp/hard/libcr_c.a(_do_fflush.o)
                0x000000000000336e                _do_fflush
 .text.__aeabi_division_uldivmod
                0x00000000000033ae      0x174 /Applications/MCUXpressoIDE_11.7.0_9198/ide/plugins/com.nxp.mcuxpresso.tools.macosx_11.7.0.202209140929/tools/bin/../lib/gcc/arm-none-eabi/10.3.1/thumb/v7e-m+fp/hard/libcr_eabihelpers.a(division_64.o)
                0x00000000000033ae                __aeabi_uldivmod
                0x00000000000033b2                __bhs_ldivmod1
 .text.__aeabi_division_idiv0
                0x0000000000003522        0x2 /Applications/MCUXpressoIDE_11.7.0_9198/ide/plugins/com.nxp.mcuxpresso.tools.macosx_11.7.0.202209140929/tools/bin/../lib/gcc/arm-none-eabi/10.3.1/thumb/v7e-m+fp/hard/libcr_eabihelpers.a(division_idiv0.o)
                0x0000000000003522                __aeabi_idiv0
 .text.__aeabi_d2uiz
                0x0000000000003524       0x30 /Applications/MCUXpressoIDE_11.7.0_9198/ide/plugins/com.nxp.mcuxpresso.tools.macosx_11.7.0.202209140929/tools/bin/../lib/gcc/arm-none-eabi/10.3.1/thumb/v7e-m+fp/hard/libcr_eabihelpers.a(double.o)
                0x0000000000003524                __aeabi_d2uiz
 .text.__bhs_ui2d
                0x0000000000003554       0x46 /Applications/MCUXpressoIDE_11.7.0_9198/ide/plugins/com.nxp.mcuxpresso.tools.macosx_11.7.0.202209140929/tools/bin/../lib/gcc/arm-none-eabi/10.3.1/thumb/v7e-m+fp/hard/libcr_eabihelpers.a(double.o)
                0x0000000000003554                __bhs_ui2d
 .text.__aeabi_ui2d
                0x000000000000359a        0x8 /Applications/MCUXpressoIDE_11.7.0_9198/ide/plugins/com.nxp.mcuxpresso.tools.macosx_11.7.0.202209140929/tools/bin/../lib/gcc/arm-none-eabi/10.3.1/thumb/v7e-m+fp/hard/libcr_eabihelpers.a(double.o)
                0x000000000000359a                __aeabi_ui2d
 .text.__aeabi_memcpy
                0x00000000000035a2       0x34 /Applications/MCUXpressoIDE_11.7.0_9198/ide/plugins/com.nxp.mcuxpresso.tools.macosx_11.7.0.202209140929/tools/bin/../lib/gcc/arm-none-eabi/10.3.1/thumb/v7e-m+fp/hard/libcr_eabihelpers.a(memcpy.o)
                0x00000000000035a2                __aeabi_memcpy
                0x00000000000035ac                __aeabi_memcpy4
                0x00000000000035ac                __aeabi_memcpy8
 .text.__aeabi_memset_lowlevel
                0x00000000000035d6       0x32 /Applications/MCUXpressoIDE_11.7.0_9198/ide/plugins/com.nxp.mcuxpresso.tools.macosx_11.7.0.202209140929/tools/bin/../lib/gcc/arm-none-eabi/10.3.1/thumb/v7e-m+fp/hard/libcr_eabihelpers.a(memcpy.o)
                0x00000000000035d6                __aeabi_lowlevel_memset
 .text.__sys_close
                0x0000000000003608        0x6 /Applications/MCUXpressoIDE_11.7.0_9198/ide/plugins/com.nxp.mcuxpresso.tools.macosx_11.7.0.202209140929/tools/bin/../lib/gcc/arm-none-eabi/10.3.1/../../../../arm-none-eabi/lib/thumb/v7e-m+fp/hard/libcr_nohost_nf.a(__sys_close.o)
                0x0000000000003608                __sys_close
 .text.__sys_flen
                0x000000000000360e        0x6 /Applications/MCUXpressoIDE_11.7.0_9198/ide/plugins/com.nxp.mcuxpresso.tools.macosx_11.7.0.202209140929/tools/bin/../lib/gcc/arm-none-eabi/10.3.1/../../../../arm-none-eabi/lib/thumb/v7e-m+fp/hard/libcr_nohost_nf.a(__sys_flen.o)
                0x000000000000360e                __sys_flen
 .text.__sys_istty
                0x0000000000003614        0x6 /Applications/MCUXpressoIDE_11.7.0_9198/ide/plugins/com.nxp.mcuxpresso.tools.macosx_11.7.0.202209140929/tools/bin/../lib/gcc/arm-none-eabi/10.3.1/../../../../arm-none-eabi/lib/thumb/v7e-m+fp/hard/libcr_nohost_nf.a(__sys_istty.o)
                0x0000000000003614                __sys_istty
 .text.__sys_remove
                0x000000000000361a        0x6 /Applications/MCUXpressoIDE_11.7.0_9198/ide/plugins/com.nxp.mcuxpresso.tools.macosx_11.7.0.202209140929/tools/bin/../lib/gcc/arm-none-eabi/10.3.1/../../../../arm-none-eabi/lib/thumb/v7e-m+fp/hard/libcr_nohost_nf.a(__sys_remove.o)
                0x000000000000361a                __sys_remove
 .text.__sys_seek
                0x0000000000003620        0x6 /Applications/MCUXpressoIDE_11.7.0_9198/ide/plugins/com.nxp.mcuxpresso.tools.macosx_11.7.0.202209140929/tools/bin/../lib/gcc/arm-none-eabi/10.3.1/../../../../arm-none-eabi/lib/thumb/v7e-m+fp/hard/libcr_nohost_nf.a(__sys_seek.o)
                0x0000000000003620                __sys_seek
 .text.__sys_tmpnam
                0x0000000000003626        0x6 /Applications/MCUXpressoIDE_11.7.0_9198/ide/plugins/com.nxp.mcuxpresso.tools.macosx_11.7.0.202209140929/tools/bin/../lib/gcc/arm-none-eabi/10.3.1/../../../../arm-none-eabi/lib/thumb/v7e-m+fp/hard/libcr_nohost_nf.a(__sys_tmpnam.o)
                0x0000000000003626                __sys_tmpnam
 .text.__sys_write
                0x000000000000362c        0x4 /Applications/MCUXpressoIDE_11.7.0_9198/ide/plugins/com.nxp.mcuxpresso.tools.macosx_11.7.0.202209140929/tools/bin/../lib/gcc/arm-none-eabi/10.3.1/../../../../arm-none-eabi/lib/thumb/v7e-m+fp/hard/libcr_nohost_nf.a(__sys_write.o)
                0x000000000000362c                __sys_write
 *(SORT_BY_ALIGNMENT(.rodata) SORT_BY_ALIGNMENT(.rodata.*) SORT_BY_ALIGNMENT(.constdata) SORT_BY_ALIGNMENT(.constdata.*))
 .rodata.s_lpuartBases
                0x0000000000003630       0x34 ./drivers/fsl_lpuart.o
 .rodata.s_LpuartAdapterBase
                0x0000000000003664       0x34 ./component/uart/fsl_adapter_lpuart.o
 .rodata.armPllConfig_BOARD_BootClockRUN
                0x0000000000003698        0x8 ./board/clock_config.o
                0x0000000000003698                armPllConfig_BOARD_BootClockRUN
 .rodata.sysPll2Config_BOARD_BootClockRUN
                0x00000000000036a0        0xc ./board/clock_config.o
                0x00000000000036a0                sysPll2Config_BOARD_BootClockRUN
 .rodata.videoPllConfig_BOARD_BootClockRUN
                0x00000000000036ac       0x14 ./board/clock_config.o
                0x00000000000036ac                videoPllConfig_BOARD_BootClockRUN
 .rodata.__num_Ciob_streams
                0x00000000000036c0        0x4 /Applications/MCUXpressoIDE_11.7.0_9198/ide/plugins/com.nxp.mcuxpresso.tools.macosx_11.7.0.202209140929/tools/bin/../lib/gcc/arm-none-eabi/10.3.1/../../../../arm-none-eabi/lib/thumb/v7e-m+fp/hard/libcr_nohost_nf.a(__ciob.o)
                0x00000000000036c0                __num_Ciob_streams
 .rodata.main.str1.1
                0x00000000000036c4       0x19 ./source/MIMXRT1176_Project.o
 .rodata.s_clockSourceName
                0x00000000000036dd      0x278 ./drivers/fsl_clock.o
 .rodata.s_lpuartClock
                0x0000000000003955        0xd ./drivers/fsl_lpuart.o
 .rodata.s_clockSourceName
                0x0000000000003962      0x278 ./board/board.o
 .rodata.s_clockSourceName
                0x0000000000003bda      0x278 ./board/clock_config.o
 .rodata._initio.str1.1
                0x0000000000003e52        0x4 /Applications/MCUXpressoIDE_11.7.0_9198/ide/plugins/com.nxp.mcuxpresso.tools.macosx_11.7.0.202209140929/tools/bin/../lib/gcc/arm-none-eabi/10.3.1/../../../../arm-none-eabi/lib/thumb/v7e-m+fp/hard/libcr_c.a(initio.o)
                0x0000000000003e58                . = ALIGN (0x4)
 *fill*         0x0000000000003e56        0x2 ff

.glue_7         0x0000000000003e58        0x0
 .glue_7        0x0000000000003e58        0x0 linker stubs

.glue_7t        0x0000000000003e58        0x0
 .glue_7t       0x0000000000003e58        0x0 linker stubs

.vfp11_veneer   0x0000000000003e58        0x0
 .vfp11_veneer  0x0000000000003e58        0x0 linker stubs

.v4_bx          0x0000000000003e58        0x0
 .v4_bx         0x0000000000003e58        0x0 linker stubs

.iplt           0x0000000000003e58        0x0
 .iplt          0x0000000000003e58        0x0 ./utilities/fsl_debug_console.o

.rel.dyn        0x0000000000003e58        0x0
 .rel.iplt      0x0000000000003e58        0x0 ./utilities/fsl_debug_console.o

.ARM.extab
 *(SORT_BY_ALIGNMENT(.ARM.extab*) SORT_BY_ALIGNMENT(.gnu.linkonce.armextab.*))

.ARM.exidx      0x0000000000003e58        0x0
                0x0000000000003e58                __exidx_start = .
 *(SORT_BY_ALIGNMENT(.ARM.exidx*) SORT_BY_ALIGNMENT(.gnu.linkonce.armexidx.*))
                0x0000000000003e58                __exidx_end = .
                0x0000000000003e58                _etext = .

.data_RAM2      0x0000000020000000        0x0 load address 0x0000000000003e58
 FILL mask 0xff
                [!provide]                        PROVIDE (__start_data_RAM2 = .)
                [!provide]                        PROVIDE (__start_data_SRAM_DTC_cm7 = .)
 *(SORT_BY_ALIGNMENT(.ramfunc.$RAM2))
 *(SORT_BY_ALIGNMENT(.ramfunc.$SRAM_DTC_cm7))
 *(SORT_BY_ALIGNMENT(.data.$RAM2))
 *(SORT_BY_ALIGNMENT(.data.$SRAM_DTC_cm7))
 *(SORT_BY_ALIGNMENT(.data.$RAM2.*))
 *(SORT_BY_ALIGNMENT(.data.$SRAM_DTC_cm7.*))
                0x0000000020000000                . = ALIGN (0x4)
                [!provide]                        PROVIDE (__end_data_RAM2 = .)
                [!provide]                        PROVIDE (__end_data_SRAM_DTC_cm7 = .)

.data_RAM3      0x0000000020240000        0x0 load address 0x0000000000003e58
 FILL mask 0xff
                [!provide]                        PROVIDE (__start_data_RAM3 = .)
                [!provide]                        PROVIDE (__start_data_SRAM_OC1 = .)
 *(SORT_BY_ALIGNMENT(.ramfunc.$RAM3))
 *(SORT_BY_ALIGNMENT(.ramfunc.$SRAM_OC1))
 *(SORT_BY_ALIGNMENT(.data.$RAM3))
 *(SORT_BY_ALIGNMENT(.data.$SRAM_OC1))
 *(SORT_BY_ALIGNMENT(.data.$RAM3.*))
 *(SORT_BY_ALIGNMENT(.data.$SRAM_OC1.*))
                0x0000000020240000                . = ALIGN (0x4)
                [!provide]                        PROVIDE (__end_data_RAM3 = .)
                [!provide]                        PROVIDE (__end_data_SRAM_OC1 = .)

.data_RAM4      0x00000000202c0000        0x0 load address 0x0000000000003e58
 FILL mask 0xff
                [!provide]                        PROVIDE (__start_data_RAM4 = .)
                [!provide]                        PROVIDE (__start_data_SRAM_OC2 = .)
 *(SORT_BY_ALIGNMENT(.ramfunc.$RAM4))
 *(SORT_BY_ALIGNMENT(.ramfunc.$SRAM_OC2))
 *(SORT_BY_ALIGNMENT(.data.$RAM4))
 *(SORT_BY_ALIGNMENT(.data.$SRAM_OC2))
 *(SORT_BY_ALIGNMENT(.data.$RAM4.*))
 *(SORT_BY_ALIGNMENT(.data.$SRAM_OC2.*))
                0x00000000202c0000                . = ALIGN (0x4)
                [!provide]                        PROVIDE (__end_data_RAM4 = .)
                [!provide]                        PROVIDE (__end_data_SRAM_OC2 = .)

.data_RAM5      0x0000000020340000        0x0 load address 0x0000000000003e58
 FILL mask 0xff
                [!provide]                        PROVIDE (__start_data_RAM5 = .)
                [!provide]                        PROVIDE (__start_data_SRAM_OC_ECC1 = .)
 *(SORT_BY_ALIGNMENT(.ramfunc.$RAM5))
 *(SORT_BY_ALIGNMENT(.ramfunc.$SRAM_OC_ECC1))
 *(SORT_BY_ALIGNMENT(.data.$RAM5))
 *(SORT_BY_ALIGNMENT(.data.$SRAM_OC_ECC1))
 *(SORT_BY_ALIGNMENT(.data.$RAM5.*))
 *(SORT_BY_ALIGNMENT(.data.$SRAM_OC_ECC1.*))
                0x0000000020340000                . = ALIGN (0x4)
                [!provide]                        PROVIDE (__end_data_RAM5 = .)
                [!provide]                        PROVIDE (__end_data_SRAM_OC_ECC1 = .)

.data_RAM6      0x0000000020350000        0x0 load address 0x0000000000003e58
 FILL mask 0xff
                [!provide]                        PROVIDE (__start_data_RAM6 = .)
                [!provide]                        PROVIDE (__start_data_SRAM_OC_ECC2 = .)
 *(SORT_BY_ALIGNMENT(.ramfunc.$RAM6))
 *(SORT_BY_ALIGNMENT(.ramfunc.$SRAM_OC_ECC2))
 *(SORT_BY_ALIGNMENT(.data.$RAM6))
 *(SORT_BY_ALIGNMENT(.data.$SRAM_OC_ECC2))
 *(SORT_BY_ALIGNMENT(.data.$RAM6.*))
 *(SORT_BY_ALIGNMENT(.data.$SRAM_OC_ECC2.*))
                0x0000000020350000                . = ALIGN (0x4)
                [!provide]                        PROVIDE (__end_data_RAM6 = .)
                [!provide]                        PROVIDE (__end_data_SRAM_OC_ECC2 = .)

.data_RAM7      0x0000000020360000        0x0 load address 0x0000000000003e58
 FILL mask 0xff
                [!provide]                        PROVIDE (__start_data_RAM7 = .)
                [!provide]                        PROVIDE (__start_data_SRAM_OC_cm7 = .)
 *(SORT_BY_ALIGNMENT(.ramfunc.$RAM7))
 *(SORT_BY_ALIGNMENT(.ramfunc.$SRAM_OC_cm7))
 *(SORT_BY_ALIGNMENT(.data.$RAM7))
 *(SORT_BY_ALIGNMENT(.data.$SRAM_OC_cm7))
 *(SORT_BY_ALIGNMENT(.data.$RAM7.*))
 *(SORT_BY_ALIGNMENT(.data.$SRAM_OC_cm7.*))
                0x0000000020360000                . = ALIGN (0x4)
                [!provide]                        PROVIDE (__end_data_RAM7 = .)
                [!provide]                        PROVIDE (__end_data_SRAM_OC_cm7 = .)

.data_RAM8      0x0000000080000000        0x0 load address 0x0000000000003e58
 FILL mask 0xff
                [!provide]                        PROVIDE (__start_data_RAM8 = .)
                [!provide]                        PROVIDE (__start_data_BOARD_SDRAM = .)
 *(SORT_BY_ALIGNMENT(.ramfunc.$RAM8))
 *(SORT_BY_ALIGNMENT(.ramfunc.$BOARD_SDRAM))
 *(SORT_BY_ALIGNMENT(.data.$RAM8))
 *(SORT_BY_ALIGNMENT(.data.$BOARD_SDRAM))
 *(SORT_BY_ALIGNMENT(.data.$RAM8.*))
 *(SORT_BY_ALIGNMENT(.data.$BOARD_SDRAM.*))
                0x0000000080000000                . = ALIGN (0x4)
                [!provide]                        PROVIDE (__end_data_RAM8 = .)
                [!provide]                        PROVIDE (__end_data_BOARD_SDRAM = .)

.data_RAM9      0x0000000083000000        0x0 load address 0x0000000000003e58
 FILL mask 0xff
                [!provide]                        PROVIDE (__start_data_RAM9 = .)
                [!provide]                        PROVIDE (__start_data_NCACHE_REGION = .)
 *(SORT_BY_ALIGNMENT(.ramfunc.$RAM9))
 *(SORT_BY_ALIGNMENT(.ramfunc.$NCACHE_REGION))
 *(SORT_BY_ALIGNMENT(.data.$RAM9))
 *(SORT_BY_ALIGNMENT(.data.$NCACHE_REGION))
 *(SORT_BY_ALIGNMENT(.data.$RAM9.*))
 *(SORT_BY_ALIGNMENT(.data.$NCACHE_REGION.*))
                0x0000000083000000                . = ALIGN (0x4)
                [!provide]                        PROVIDE (__end_data_RAM9 = .)
                [!provide]                        PROVIDE (__end_data_NCACHE_REGION = .)

.uninit_RESERVED
                0x0000000000003e58        0x0
                0x0000000000003e58                _start_uninit_RESERVED = .
 *(SORT_BY_ALIGNMENT(.bss.$RESERVED*))
                0x0000000000003e58                . = ALIGN (0x4)
                0x0000000000003e58                _end_uninit_RESERVED = .

.data           0x0000000000003e58        0x4
 FILL mask 0xff
                0x0000000000003e58                _data = .
                [!provide]                        PROVIDE (__start_data_RAM = .)
                [!provide]                        PROVIDE (__start_data_SRAM_ITC_cm7 = .)
 *(SORT_BY_ALIGNMENT(vtable))
 *(SORT_BY_ALIGNMENT(.ramfunc*))
 *(SORT_BY_ALIGNMENT(CodeQuickAccess))
 *(SORT_BY_ALIGNMENT(DataQuickAccess))
 *(SORT_BY_ALIGNMENT(RamFunction))
 *(SORT_BY_ALIGNMENT(.data*))
 .data.SystemCoreClock
                0x0000000000003e58        0x4 ./device/system_MIMXRT1176_cm7.o
                0x0000000000003e58                SystemCoreClock
                0x0000000000003e5c                . = ALIGN (0x4)
                0x0000000000003e5c                _edata = .
                [!provide]                        PROVIDE (__end_data_RAM = .)
                [!provide]                        PROVIDE (__end_data_SRAM_ITC_cm7 = .)

.igot.plt       0x0000000000003e5c        0x0
 .igot.plt      0x0000000000003e5c        0x0 ./utilities/fsl_debug_console.o

.bss_RAM2       0x0000000020000000        0x0
                [!provide]                        PROVIDE (__start_bss_RAM2 = .)
                [!provide]                        PROVIDE (__start_bss_SRAM_DTC_cm7 = .)
 *(SORT_BY_ALIGNMENT(.bss.$RAM2))
 *(SORT_BY_ALIGNMENT(.bss.$SRAM_DTC_cm7))
 *(SORT_BY_ALIGNMENT(.bss.$RAM2.*))
 *(SORT_BY_ALIGNMENT(.bss.$SRAM_DTC_cm7.*))
                0x0000000020000000                . = ALIGN ((. != 0x0)?0x4:0x1)
                [!provide]                        PROVIDE (__end_bss_RAM2 = .)
                [!provide]                        PROVIDE (__end_bss_SRAM_DTC_cm7 = .)

.bss_RAM3       0x0000000020240000        0x0
                [!provide]                        PROVIDE (__start_bss_RAM3 = .)
                [!provide]                        PROVIDE (__start_bss_SRAM_OC1 = .)
 *(SORT_BY_ALIGNMENT(.bss.$RAM3))
 *(SORT_BY_ALIGNMENT(.bss.$SRAM_OC1))
 *(SORT_BY_ALIGNMENT(.bss.$RAM3.*))
 *(SORT_BY_ALIGNMENT(.bss.$SRAM_OC1.*))
                0x0000000020240000                . = ALIGN ((. != 0x0)?0x4:0x1)
                [!provide]                        PROVIDE (__end_bss_RAM3 = .)
                [!provide]                        PROVIDE (__end_bss_SRAM_OC1 = .)

.bss_RAM4       0x00000000202c0000        0x0
                [!provide]                        PROVIDE (__start_bss_RAM4 = .)
                [!provide]                        PROVIDE (__start_bss_SRAM_OC2 = .)
 *(SORT_BY_ALIGNMENT(.bss.$RAM4))
 *(SORT_BY_ALIGNMENT(.bss.$SRAM_OC2))
 *(SORT_BY_ALIGNMENT(.bss.$RAM4.*))
 *(SORT_BY_ALIGNMENT(.bss.$SRAM_OC2.*))
                0x00000000202c0000                . = ALIGN ((. != 0x0)?0x4:0x1)
                [!provide]                        PROVIDE (__end_bss_RAM4 = .)
                [!provide]                        PROVIDE (__end_bss_SRAM_OC2 = .)

.bss_RAM5       0x0000000020340000        0x0
                [!provide]                        PROVIDE (__start_bss_RAM5 = .)
                [!provide]                        PROVIDE (__start_bss_SRAM_OC_ECC1 = .)
 *(SORT_BY_ALIGNMENT(.bss.$RAM5))
 *(SORT_BY_ALIGNMENT(.bss.$SRAM_OC_ECC1))
 *(SORT_BY_ALIGNMENT(.bss.$RAM5.*))
 *(SORT_BY_ALIGNMENT(.bss.$SRAM_OC_ECC1.*))
                0x0000000020340000                . = ALIGN ((. != 0x0)?0x4:0x1)
                [!provide]                        PROVIDE (__end_bss_RAM5 = .)
                [!provide]                        PROVIDE (__end_bss_SRAM_OC_ECC1 = .)

.bss_RAM6       0x0000000020350000        0x0
                [!provide]                        PROVIDE (__start_bss_RAM6 = .)
                [!provide]                        PROVIDE (__start_bss_SRAM_OC_ECC2 = .)
 *(SORT_BY_ALIGNMENT(.bss.$RAM6))
 *(SORT_BY_ALIGNMENT(.bss.$SRAM_OC_ECC2))
 *(SORT_BY_ALIGNMENT(.bss.$RAM6.*))
 *(SORT_BY_ALIGNMENT(.bss.$SRAM_OC_ECC2.*))
                0x0000000020350000                . = ALIGN ((. != 0x0)?0x4:0x1)
                [!provide]                        PROVIDE (__end_bss_RAM6 = .)
                [!provide]                        PROVIDE (__end_bss_SRAM_OC_ECC2 = .)

.bss_RAM7       0x0000000020360000        0x0
                [!provide]                        PROVIDE (__start_bss_RAM7 = .)
                [!provide]                        PROVIDE (__start_bss_SRAM_OC_cm7 = .)
 *(SORT_BY_ALIGNMENT(.bss.$RAM7))
 *(SORT_BY_ALIGNMENT(.bss.$SRAM_OC_cm7))
 *(SORT_BY_ALIGNMENT(.bss.$RAM7.*))
 *(SORT_BY_ALIGNMENT(.bss.$SRAM_OC_cm7.*))
                0x0000000020360000                . = ALIGN ((. != 0x0)?0x4:0x1)
                [!provide]                        PROVIDE (__end_bss_RAM7 = .)
                [!provide]                        PROVIDE (__end_bss_SRAM_OC_cm7 = .)

.bss_RAM8       0x0000000080000000        0x0
                [!provide]                        PROVIDE (__start_bss_RAM8 = .)
                [!provide]                        PROVIDE (__start_bss_BOARD_SDRAM = .)
 *(SORT_BY_ALIGNMENT(.bss.$RAM8))
 *(SORT_BY_ALIGNMENT(.bss.$BOARD_SDRAM))
 *(SORT_BY_ALIGNMENT(.bss.$RAM8.*))
 *(SORT_BY_ALIGNMENT(.bss.$BOARD_SDRAM.*))
                0x0000000080000000                . = ALIGN ((. != 0x0)?0x4:0x1)
                [!provide]                        PROVIDE (__end_bss_RAM8 = .)
                [!provide]                        PROVIDE (__end_bss_BOARD_SDRAM = .)

.bss_RAM9       0x0000000083000000        0x0
                [!provide]                        PROVIDE (__start_bss_RAM9 = .)
                [!provide]                        PROVIDE (__start_bss_NCACHE_REGION = .)
 *(SORT_BY_ALIGNMENT(.bss.$RAM9))
 *(SORT_BY_ALIGNMENT(.bss.$NCACHE_REGION))
 *(SORT_BY_ALIGNMENT(.bss.$RAM9.*))
 *(SORT_BY_ALIGNMENT(.bss.$NCACHE_REGION.*))
                0x0000000083000000                . = ALIGN ((. != 0x0)?0x4:0x1)
                [!provide]                        PROVIDE (__end_bss_RAM9 = .)
                [!provide]                        PROVIDE (__end_bss_NCACHE_REGION = .)

.bss            0x0000000000003e5c      0x148
                0x0000000000003e5c                _bss = .
                [!provide]                        PROVIDE (__start_bss_RAM = .)
                [!provide]                        PROVIDE (__start_bss_SRAM_ITC_cm7 = .)
 *(SORT_BY_ALIGNMENT(.bss*))
 .bss.g_serialHandle
                0x0000000000003e5c        0x4 ./utilities/fsl_debug_console.o
                0x0000000000003e5c                g_serialHandle
 .bss.s_debugConsoleState
                0x0000000000003e60       0x20 ./utilities/fsl_debug_console.o
 .bss.s_lpuartHandle
                0x0000000000003e80       0x34 ./drivers/fsl_lpuart.o
                0x0000000000003e80                s_lpuartHandle
 .bss.s_lpuartIsr
                0x0000000000003eb4       0x34 ./drivers/fsl_lpuart.o
                0x0000000000003eb4                s_lpuartIsr
 .bss.errno     0x0000000000003ee8        0x4 /Applications/MCUXpressoIDE_11.7.0_9198/ide/plugins/com.nxp.mcuxpresso.tools.macosx_11.7.0.202209140929/tools/bin/../lib/gcc/arm-none-eabi/10.3.1/../../../../arm-none-eabi/lib/thumb/v7e-m+fp/hard/libcr_c.a(errno.o)
                0x0000000000003ee8                errno
 .bss.__Ciob    0x0000000000003eec       0xb4 /Applications/MCUXpressoIDE_11.7.0_9198/ide/plugins/com.nxp.mcuxpresso.tools.macosx_11.7.0.202209140929/tools/bin/../lib/gcc/arm-none-eabi/10.3.1/../../../../arm-none-eabi/lib/thumb/v7e-m+fp/hard/libcr_nohost_nf.a(__ciob.o)
                0x0000000000003eec                __Ciob
 .bss.s_debugConsoleReadWaitSemaphore
                0x0000000000003fa0        0x1 ./utilities/fsl_debug_console.o
 *(SORT_BY_ALIGNMENT(COMMON))
                0x0000000000003fa4                . = ALIGN (0x4)
 *fill*         0x0000000000003fa1        0x3 
                0x0000000000003fa4                _ebss = .
                [!provide]                        PROVIDE (__end_bss_RAM = .)
                [!provide]                        PROVIDE (__end_bss_SRAM_ITC_cm7 = .)
                [!provide]                        PROVIDE (end = .)

.noinit_RAM2    0x0000000020000000        0x0
                [!provide]                        PROVIDE (__start_noinit_RAM2 = .)
                [!provide]                        PROVIDE (__start_noinit_SRAM_DTC_cm7 = .)
 *(SORT_BY_ALIGNMENT(.noinit.$RAM2))
 *(SORT_BY_ALIGNMENT(.noinit.$SRAM_DTC_cm7))
 *(SORT_BY_ALIGNMENT(.noinit.$RAM2.*))
 *(SORT_BY_ALIGNMENT(.noinit.$SRAM_DTC_cm7.*))
                0x0000000020000000                . = ALIGN (0x4)
                [!provide]                        PROVIDE (__end_noinit_RAM2 = .)
                [!provide]                        PROVIDE (__end_noinit_SRAM_DTC_cm7 = .)

.noinit_RAM3    0x0000000020240000        0x0
                [!provide]                        PROVIDE (__start_noinit_RAM3 = .)
                [!provide]                        PROVIDE (__start_noinit_SRAM_OC1 = .)
 *(SORT_BY_ALIGNMENT(.noinit.$RAM3))
 *(SORT_BY_ALIGNMENT(.noinit.$SRAM_OC1))
 *(SORT_BY_ALIGNMENT(.noinit.$RAM3.*))
 *(SORT_BY_ALIGNMENT(.noinit.$SRAM_OC1.*))
                0x0000000020240000                . = ALIGN (0x4)
                [!provide]                        PROVIDE (__end_noinit_RAM3 = .)
                [!provide]                        PROVIDE (__end_noinit_SRAM_OC1 = .)

.noinit_RAM4    0x00000000202c0000        0x0
                [!provide]                        PROVIDE (__start_noinit_RAM4 = .)
                [!provide]                        PROVIDE (__start_noinit_SRAM_OC2 = .)
 *(SORT_BY_ALIGNMENT(.noinit.$RAM4))
 *(SORT_BY_ALIGNMENT(.noinit.$SRAM_OC2))
 *(SORT_BY_ALIGNMENT(.noinit.$RAM4.*))
 *(SORT_BY_ALIGNMENT(.noinit.$SRAM_OC2.*))
                0x00000000202c0000                . = ALIGN (0x4)
                [!provide]                        PROVIDE (__end_noinit_RAM4 = .)
                [!provide]                        PROVIDE (__end_noinit_SRAM_OC2 = .)

.noinit_RAM5    0x0000000020340000        0x0
                [!provide]                        PROVIDE (__start_noinit_RAM5 = .)
                [!provide]                        PROVIDE (__start_noinit_SRAM_OC_ECC1 = .)
 *(SORT_BY_ALIGNMENT(.noinit.$RAM5))
 *(SORT_BY_ALIGNMENT(.noinit.$SRAM_OC_ECC1))
 *(SORT_BY_ALIGNMENT(.noinit.$RAM5.*))
 *(SORT_BY_ALIGNMENT(.noinit.$SRAM_OC_ECC1.*))
                0x0000000020340000                . = ALIGN (0x4)
                [!provide]                        PROVIDE (__end_noinit_RAM5 = .)
                [!provide]                        PROVIDE (__end_noinit_SRAM_OC_ECC1 = .)

.noinit_RAM6    0x0000000020350000        0x0
                [!provide]                        PROVIDE (__start_noinit_RAM6 = .)
                [!provide]                        PROVIDE (__start_noinit_SRAM_OC_ECC2 = .)
 *(SORT_BY_ALIGNMENT(.noinit.$RAM6))
 *(SORT_BY_ALIGNMENT(.noinit.$SRAM_OC_ECC2))
 *(SORT_BY_ALIGNMENT(.noinit.$RAM6.*))
 *(SORT_BY_ALIGNMENT(.noinit.$SRAM_OC_ECC2.*))
                0x0000000020350000                . = ALIGN (0x4)
                [!provide]                        PROVIDE (__end_noinit_RAM6 = .)
                [!provide]                        PROVIDE (__end_noinit_SRAM_OC_ECC2 = .)

.noinit_RAM7    0x0000000020360000        0x0
                [!provide]                        PROVIDE (__start_noinit_RAM7 = .)
                [!provide]                        PROVIDE (__start_noinit_SRAM_OC_cm7 = .)
 *(SORT_BY_ALIGNMENT(.noinit.$RAM7))
 *(SORT_BY_ALIGNMENT(.noinit.$SRAM_OC_cm7))
 *(SORT_BY_ALIGNMENT(.noinit.$RAM7.*))
 *(SORT_BY_ALIGNMENT(.noinit.$SRAM_OC_cm7.*))
                0x0000000020360000                . = ALIGN (0x4)
                [!provide]                        PROVIDE (__end_noinit_RAM7 = .)
                [!provide]                        PROVIDE (__end_noinit_SRAM_OC_cm7 = .)

.noinit_RAM8    0x0000000080000000        0x0
                [!provide]                        PROVIDE (__start_noinit_RAM8 = .)
                [!provide]                        PROVIDE (__start_noinit_BOARD_SDRAM = .)
 *(SORT_BY_ALIGNMENT(.noinit.$RAM8))
 *(SORT_BY_ALIGNMENT(.noinit.$BOARD_SDRAM))
 *(SORT_BY_ALIGNMENT(.noinit.$RAM8.*))
 *(SORT_BY_ALIGNMENT(.noinit.$BOARD_SDRAM.*))
                0x0000000080000000                . = ALIGN (0x4)
                [!provide]                        PROVIDE (__end_noinit_RAM8 = .)
                [!provide]                        PROVIDE (__end_noinit_BOARD_SDRAM = .)

.noinit_RAM9    0x0000000083000000        0x0
                [!provide]                        PROVIDE (__start_noinit_RAM9 = .)
                [!provide]                        PROVIDE (__start_noinit_NCACHE_REGION = .)
 *(SORT_BY_ALIGNMENT(.noinit.$RAM9))
 *(SORT_BY_ALIGNMENT(.noinit.$NCACHE_REGION))
 *(SORT_BY_ALIGNMENT(.noinit.$RAM9.*))
 *(SORT_BY_ALIGNMENT(.noinit.$NCACHE_REGION.*))
                0x0000000083000000                . = ALIGN (0x4)
                [!provide]                        PROVIDE (__end_noinit_RAM9 = .)
                [!provide]                        PROVIDE (__end_noinit_NCACHE_REGION = .)

.noinit         0x0000000000003fa4        0x0
                0x0000000000003fa4                _noinit = .
                [!provide]                        PROVIDE (__start_noinit_RAM = .)
                [!provide]                        PROVIDE (__start_noinit_SRAM_ITC_cm7 = .)
 *(SORT_BY_ALIGNMENT(.noinit*))
                0x0000000000003fa4                . = ALIGN (0x4)
                0x0000000000003fa4                _end_noinit = .
                [!provide]                        PROVIDE (__end_noinit_RAM = .)
                [!provide]                        PROVIDE (__end_noinit_SRAM_ITC_cm7 = .)
                0x0000000000001000                _HeapSize = 0x1000

.heap           0x0000000000003fa4     0x1000
                0x0000000000003fa4                _pvHeapStart = .
                0x0000000000004fa4                . = (. + _HeapSize)
 *fill*         0x0000000000003fa4     0x1000 
                0x0000000000004fa4                . = ALIGN (0x4)
                0x0000000000004fa4                _pvHeapLimit = .
                0x0000000000001000                _StackSize = 0x1000

.heap2stackfill
                0x0000000000004fa4     0x1000
                0x0000000000005fa4                . = (. + _StackSize)
 *fill*         0x0000000000004fa4     0x1000 

.stack          0x000000000003f000        0x0
                0x000000000003f000                _vStackBase = .
                0x000000000003f000                . = ALIGN (0x4)
                0x0000000000040000                _vStackTop = (. + _StackSize)
                0x0000000000000000                _image_start = LOADADDR (.text)
                0x0000000000003e5c                _image_end = (LOADADDR (.data) + SIZEOF (.data))
                0x0000000000003e5c                _image_size = (_image_end - _image_start)
                0x0000000000000000                _boot_loadaddr = ORIGIN (SRAM_ITC_cm7)
                0x0000000000040000                _boot_size = LENGTH (SRAM_ITC_cm7)
OUTPUT(MIMXRT1176_Project.axf elf32-littlearm)
LOAD linker stubs

.debug_info     0x0000000000000000    0x1fdcb
 .debug_info    0x0000000000000000     0x14d5 ./utilities/fsl_debug_console.o
 .debug_info    0x00000000000014d5     0x1612 ./utilities/fsl_str.o
 .debug_info    0x0000000000002ae7     0x2175 ./startup/startup_mimxrt1176_cm7.o
 .debug_info    0x0000000000004c5c      0x5b1 ./source/MIMXRT1176_Project.o
 .debug_info    0x000000000000520d       0x38 ./source/semihost_hardfault.o
 .debug_info    0x0000000000005245      0xfda ./drivers/fsl_anatop_ai.o
 .debug_info    0x000000000000621f     0x542c ./drivers/fsl_clock.o
 .debug_info    0x000000000000b64b      0x6d9 ./drivers/fsl_common_arm.o
 .debug_info    0x000000000000bd24     0x1fbe ./drivers/fsl_dcdc.o
 .debug_info    0x000000000000dce2     0x42a3 ./drivers/fsl_lpuart.o
 .debug_info    0x0000000000011f85     0x1e3e ./drivers/fsl_pmu.o
 .debug_info    0x0000000000013dc3      0xb15 ./device/system_MIMXRT1176_cm7.o
 .debug_info    0x00000000000148d8      0xffc ./component/uart/fsl_adapter_lpuart.o
 .debug_info    0x00000000000158d4     0x1636 ./component/serial_manager/fsl_component_serial_manager.o
 .debug_info    0x0000000000016f0a      0x930 ./component/serial_manager/fsl_component_serial_port_uart.o
 .debug_info    0x000000000001783a     0x193d ./board/board.o
 .debug_info    0x0000000000019177     0x547d ./board/clock_config.o
 .debug_info    0x000000000001e5f4      0x415 ./board/peripherals.o
 .debug_info    0x000000000001ea09     0x13c2 ./board/pin_mux.o

.debug_abbrev   0x0000000000000000     0x3126
 .debug_abbrev  0x0000000000000000      0x392 ./utilities/fsl_debug_console.o
 .debug_abbrev  0x0000000000000392      0x3ba ./utilities/fsl_str.o
 .debug_abbrev  0x000000000000074c      0x251 ./startup/startup_mimxrt1176_cm7.o
 .debug_abbrev  0x000000000000099d      0x144 ./source/MIMXRT1176_Project.o
 .debug_abbrev  0x0000000000000ae1       0x2e ./source/semihost_hardfault.o
 .debug_abbrev  0x0000000000000b0f      0x1f8 ./drivers/fsl_anatop_ai.o
 .debug_abbrev  0x0000000000000d07      0x55a ./drivers/fsl_clock.o
 .debug_abbrev  0x0000000000001261      0x1b6 ./drivers/fsl_common_arm.o
 .debug_abbrev  0x0000000000001417      0x313 ./drivers/fsl_dcdc.o
 .debug_abbrev  0x000000000000172a      0x50b ./drivers/fsl_lpuart.o
 .debug_abbrev  0x0000000000001c35      0x26d ./drivers/fsl_pmu.o
 .debug_abbrev  0x0000000000001ea2      0x1b1 ./device/system_MIMXRT1176_cm7.o
 .debug_abbrev  0x0000000000002053      0x2c3 ./component/uart/fsl_adapter_lpuart.o
 .debug_abbrev  0x0000000000002316      0x2f2 ./component/serial_manager/fsl_component_serial_manager.o
 .debug_abbrev  0x0000000000002608      0x1d5 ./component/serial_manager/fsl_component_serial_port_uart.o
 .debug_abbrev  0x00000000000027dd      0x361 ./board/board.o
 .debug_abbrev  0x0000000000002b3e      0x360 ./board/clock_config.o
 .debug_abbrev  0x0000000000002e9e       0xb5 ./board/peripherals.o
 .debug_abbrev  0x0000000000002f53      0x1d3 ./board/pin_mux.o

.debug_loc      0x0000000000000000     0x9cf4
 .debug_loc     0x0000000000000000      0x677 ./utilities/fsl_debug_console.o
 .debug_loc     0x0000000000000677     0x166f ./utilities/fsl_str.o
 .debug_loc     0x0000000000001ce6      0x3a2 ./startup/startup_mimxrt1176_cm7.o
 .debug_loc     0x0000000000002088      0xbde ./drivers/fsl_anatop_ai.o
 .debug_loc     0x0000000000002c66     0x25b4 ./drivers/fsl_clock.o
 .debug_loc     0x000000000000521a      0x120 ./drivers/fsl_common_arm.o
 .debug_loc     0x000000000000533a      0x2ce ./drivers/fsl_dcdc.o
 .debug_loc     0x0000000000005608     0x1f45 ./drivers/fsl_lpuart.o
 .debug_loc     0x000000000000754d      0xc48 ./drivers/fsl_pmu.o
 .debug_loc     0x0000000000008195      0x2f4 ./component/uart/fsl_adapter_lpuart.o
 .debug_loc     0x0000000000008489      0xba6 ./component/serial_manager/fsl_component_serial_manager.o
 .debug_loc     0x000000000000902f      0x275 ./component/serial_manager/fsl_component_serial_port_uart.o
 .debug_loc     0x00000000000092a4      0x132 ./board/board.o
 .debug_loc     0x00000000000093d6      0x648 ./board/clock_config.o
 .debug_loc     0x0000000000009a1e      0x2d6 ./board/pin_mux.o

.debug_aranges  0x0000000000000000     0x1020
 .debug_aranges
                0x0000000000000000       0xa8 ./utilities/fsl_debug_console.o
 .debug_aranges
                0x00000000000000a8       0x40 ./utilities/fsl_str.o
 .debug_aranges
                0x00000000000000e8      0x750 ./startup/startup_mimxrt1176_cm7.o
 .debug_aranges
                0x0000000000000838       0x20 ./source/MIMXRT1176_Project.o
 .debug_aranges
                0x0000000000000858       0x20 ./source/semihost_hardfault.o
 .debug_aranges
                0x0000000000000878       0x38 ./drivers/fsl_anatop_ai.o
 .debug_aranges
                0x00000000000008b0      0x228 ./drivers/fsl_clock.o
 .debug_aranges
                0x0000000000000ad8       0x30 ./drivers/fsl_common_arm.o
 .debug_aranges
                0x0000000000000b08       0xa0 ./drivers/fsl_dcdc.o
 .debug_aranges
                0x0000000000000ba8      0x158 ./drivers/fsl_lpuart.o
 .debug_aranges
                0x0000000000000d00      0x130 ./drivers/fsl_pmu.o
 .debug_aranges
                0x0000000000000e30       0x30 ./device/system_MIMXRT1176_cm7.o
 .debug_aranges
                0x0000000000000e60       0x40 ./component/uart/fsl_adapter_lpuart.o
 .debug_aranges
                0x0000000000000ea0       0x70 ./component/serial_manager/fsl_component_serial_manager.o
 .debug_aranges
                0x0000000000000f10       0x48 ./component/serial_manager/fsl_component_serial_port_uart.o
 .debug_aranges
                0x0000000000000f58       0x38 ./board/board.o
 .debug_aranges
                0x0000000000000f90       0x48 ./board/clock_config.o
 .debug_aranges
                0x0000000000000fd8       0x20 ./board/peripherals.o
 .debug_aranges
                0x0000000000000ff8       0x28 ./board/pin_mux.o

.debug_ranges   0x0000000000000000     0x1848
 .debug_ranges  0x0000000000000000       0xc8 ./utilities/fsl_debug_console.o
 .debug_ranges  0x00000000000000c8      0x1b0 ./utilities/fsl_str.o
 .debug_ranges  0x0000000000000278      0x740 ./startup/startup_mimxrt1176_cm7.o
 .debug_ranges  0x00000000000009b8       0x10 ./source/MIMXRT1176_Project.o
 .debug_ranges  0x00000000000009c8       0x10 ./source/semihost_hardfault.o
 .debug_ranges  0x00000000000009d8       0x28 ./drivers/fsl_anatop_ai.o
 .debug_ranges  0x0000000000000a00      0x5f8 ./drivers/fsl_clock.o
 .debug_ranges  0x0000000000000ff8       0x38 ./drivers/fsl_common_arm.o
 .debug_ranges  0x0000000000001030       0x90 ./drivers/fsl_dcdc.o
 .debug_ranges  0x00000000000010c0      0x2b8 ./drivers/fsl_lpuart.o
 .debug_ranges  0x0000000000001378      0x120 ./drivers/fsl_pmu.o
 .debug_ranges  0x0000000000001498       0x20 ./device/system_MIMXRT1176_cm7.o
 .debug_ranges  0x00000000000014b8       0x58 ./component/uart/fsl_adapter_lpuart.o
 .debug_ranges  0x0000000000001510      0x138 ./component/serial_manager/fsl_component_serial_manager.o
 .debug_ranges  0x0000000000001648       0x38 ./component/serial_manager/fsl_component_serial_port_uart.o
 .debug_ranges  0x0000000000001680       0x80 ./board/board.o
 .debug_ranges  0x0000000000001700      0x108 ./board/clock_config.o
 .debug_ranges  0x0000000000001808       0x10 ./board/peripherals.o
 .debug_ranges  0x0000000000001818       0x30 ./board/pin_mux.o

.debug_line     0x0000000000000000     0xb82e
 .debug_line    0x0000000000000000      0x888 ./utilities/fsl_debug_console.o
 .debug_line    0x0000000000000888      0x9e1 ./utilities/fsl_str.o
 .debug_line    0x0000000000001269     0x1f0f ./startup/startup_mimxrt1176_cm7.o
 .debug_line    0x0000000000003178      0x2ae ./source/MIMXRT1176_Project.o
 .debug_line    0x0000000000003426       0x58 ./source/semihost_hardfault.o
 .debug_line    0x000000000000347e      0x7cd ./drivers/fsl_anatop_ai.o
 .debug_line    0x0000000000003c4b     0x2087 ./drivers/fsl_clock.o
 .debug_line    0x0000000000005cd2      0x1cd ./drivers/fsl_common_arm.o
 .debug_line    0x0000000000005e9f      0x84c ./drivers/fsl_dcdc.o
 .debug_line    0x00000000000066eb     0x1c87 ./drivers/fsl_lpuart.o
 .debug_line    0x0000000000008372      0xcdb ./drivers/fsl_pmu.o
 .debug_line    0x000000000000904d      0x357 ./device/system_MIMXRT1176_cm7.o
 .debug_line    0x00000000000093a4      0x428 ./component/uart/fsl_adapter_lpuart.o
 .debug_line    0x00000000000097cc      0x722 ./component/serial_manager/fsl_component_serial_manager.o
 .debug_line    0x0000000000009eee      0x2ae ./component/serial_manager/fsl_component_serial_port_uart.o
 .debug_line    0x000000000000a19c      0x89a ./board/board.o
 .debug_line    0x000000000000aa36      0xa30 ./board/clock_config.o
 .debug_line    0x000000000000b466       0xa5 ./board/peripherals.o
 .debug_line    0x000000000000b50b      0x323 ./board/pin_mux.o

.debug_str      0x0000000000000000    0x12011
 .debug_str     0x0000000000000000     0x16ca ./utilities/fsl_debug_console.o
                                       0x173a (size before relaxing)
 .debug_str     0x00000000000016ca      0x32d ./utilities/fsl_str.o
                                        0x78e (size before relaxing)
 .debug_str     0x00000000000019f7     0x1544 ./startup/startup_mimxrt1176_cm7.o
                                       0x170f (size before relaxing)
 .debug_str     0x0000000000002f3b       0xc8 ./source/MIMXRT1176_Project.o
                                        0x4e8 (size before relaxing)
 .debug_str     0x0000000000003003       0x1f ./source/semihost_hardfault.o
                                        0x150 (size before relaxing)
 .debug_str     0x0000000000003022      0xda6 ./drivers/fsl_anatop_ai.o
                                       0x11c3 (size before relaxing)
 .debug_str     0x0000000000003dc8     0x2853 ./drivers/fsl_clock.o
                                       0x4444 (size before relaxing)
 .debug_str     0x000000000000661b      0x159 ./drivers/fsl_common_arm.o
                                        0x57a (size before relaxing)
 .debug_str     0x0000000000006774     0x1699 ./drivers/fsl_dcdc.o
                                       0x27dd (size before relaxing)
 .debug_str     0x0000000000007e0d     0x1fa4 ./drivers/fsl_lpuart.o
                                       0x3c3e (size before relaxing)
 .debug_str     0x0000000000009db1     0x1588 ./drivers/fsl_pmu.o
                                       0x2520 (size before relaxing)
 .debug_str     0x000000000000b339      0x251 ./device/system_MIMXRT1176_cm7.o
                                        0x5ad (size before relaxing)
 .debug_str     0x000000000000b58a      0x2f7 ./component/uart/fsl_adapter_lpuart.o
                                       0x15f3 (size before relaxing)
 .debug_str     0x000000000000b881      0x342 ./component/serial_manager/fsl_component_serial_manager.o
                                       0x1605 (size before relaxing)
 .debug_str     0x000000000000bbc3       0x92 ./component/serial_manager/fsl_component_serial_port_uart.o
                                        0x963 (size before relaxing)
 .debug_str     0x000000000000bc55      0x178 ./board/board.o
                                       0x1caa (size before relaxing)
 .debug_str     0x000000000000bdcd     0x617b ./board/clock_config.o
                                       0x89be (size before relaxing)
 .debug_str     0x0000000000011f48       0x2d ./board/peripherals.o
                                        0x42d (size before relaxing)
 .debug_str     0x0000000000011f75       0x9c ./board/pin_mux.o
                                       0x11c5 (size before relaxing)

.comment        0x0000000000000000       0x49
 .comment       0x0000000000000000       0x49 ./utilities/fsl_debug_console.o
                                         0x4a (size before relaxing)
 .comment       0x0000000000000049       0x4a ./utilities/fsl_str.o
 .comment       0x0000000000000049       0x4a ./startup/startup_mimxrt1176_cm7.o
 .comment       0x0000000000000049       0x4a ./source/MIMXRT1176_Project.o
 .comment       0x0000000000000049       0x4a ./source/semihost_hardfault.o
 .comment       0x0000000000000049       0x4a ./drivers/fsl_anatop_ai.o
 .comment       0x0000000000000049       0x4a ./drivers/fsl_clock.o
 .comment       0x0000000000000049       0x4a ./drivers/fsl_common_arm.o
 .comment       0x0000000000000049       0x4a ./drivers/fsl_dcdc.o
 .comment       0x0000000000000049       0x4a ./drivers/fsl_lpuart.o
 .comment       0x0000000000000049       0x4a ./drivers/fsl_pmu.o
 .comment       0x0000000000000049       0x4a ./device/system_MIMXRT1176_cm7.o
 .comment       0x0000000000000049       0x4a ./component/uart/fsl_adapter_lpuart.o
 .comment       0x0000000000000049       0x4a ./component/serial_manager/fsl_component_serial_manager.o
 .comment       0x0000000000000049       0x4a ./component/serial_manager/fsl_component_serial_port_uart.o
 .comment       0x0000000000000049       0x4a ./board/board.o
 .comment       0x0000000000000049       0x4a ./board/clock_config.o
 .comment       0x0000000000000049       0x4a ./board/peripherals.o
 .comment       0x0000000000000049       0x4a ./board/pin_mux.o
 .comment       0x0000000000000049       0x4a /Applications/MCUXpressoIDE_11.7.0_9198/ide/plugins/com.nxp.mcuxpresso.tools.macosx_11.7.0.202209140929/tools/bin/../lib/gcc/arm-none-eabi/10.3.1/../../../../arm-none-eabi/lib/thumb/v7e-m+fp/hard/libcr_nohost_nf.a(_cr__main.o)
 .comment       0x0000000000000049       0x4a /Applications/MCUXpressoIDE_11.7.0_9198/ide/plugins/com.nxp.mcuxpresso.tools.macosx_11.7.0.202209140929/tools/bin/../lib/gcc/arm-none-eabi/10.3.1/../../../../arm-none-eabi/lib/thumb/v7e-m+fp/hard/libcr_c.a(memcpy.o)
 .comment       0x0000000000000049       0x4a /Applications/MCUXpressoIDE_11.7.0_9198/ide/plugins/com.nxp.mcuxpresso.tools.macosx_11.7.0.202209140929/tools/bin/../lib/gcc/arm-none-eabi/10.3.1/../../../../arm-none-eabi/lib/thumb/v7e-m+fp/hard/libcr_c.a(memset.o)
 .comment       0x0000000000000049       0x4a /Applications/MCUXpressoIDE_11.7.0_9198/ide/plugins/com.nxp.mcuxpresso.tools.macosx_11.7.0.202209140929/tools/bin/../lib/gcc/arm-none-eabi/10.3.1/../../../../arm-none-eabi/lib/thumb/v7e-m+fp/hard/libcr_c.a(alloc.o)
 .comment       0x0000000000000049       0x4a /Applications/MCUXpressoIDE_11.7.0_9198/ide/plugins/com.nxp.mcuxpresso.tools.macosx_11.7.0.202209140929/tools/bin/../lib/gcc/arm-none-eabi/10.3.1/../../../../arm-none-eabi/lib/thumb/v7e-m+fp/hard/libcr_c.a(errno.o)
 .comment       0x0000000000000049       0x4a /Applications/MCUXpressoIDE_11.7.0_9198/ide/plugins/com.nxp.mcuxpresso.tools.macosx_11.7.0.202209140929/tools/bin/../lib/gcc/arm-none-eabi/10.3.1/../../../../arm-none-eabi/lib/thumb/v7e-m+fp/hard/libcr_c.a(initio.o)
 .comment       0x0000000000000049       0x4a /Applications/MCUXpressoIDE_11.7.0_9198/ide/plugins/com.nxp.mcuxpresso.tools.macosx_11.7.0.202209140929/tools/bin/../lib/gcc/arm-none-eabi/10.3.1/../../../../arm-none-eabi/lib/thumb/v7e-m+fp/hard/libcr_c.a(setvbuf.o)
 .comment       0x0000000000000049       0x4a /Applications/MCUXpressoIDE_11.7.0_9198/ide/plugins/com.nxp.mcuxpresso.tools.macosx_11.7.0.202209140929/tools/bin/../lib/gcc/arm-none-eabi/10.3.1/../../../../arm-none-eabi/lib/thumb/v7e-m+fp/hard/libcr_c.a(strlen.o)
 .comment       0x0000000000000049       0x4a /Applications/MCUXpressoIDE_11.7.0_9198/ide/plugins/com.nxp.mcuxpresso.tools.macosx_11.7.0.202209140929/tools/bin/../lib/gcc/arm-none-eabi/10.3.1/../../../../arm-none-eabi/lib/thumb/v7e-m+fp/hard/libcr_c.a(_deferredlazyseek.o)
 .comment       0x0000000000000049       0x4a /Applications/MCUXpressoIDE_11.7.0_9198/ide/plugins/com.nxp.mcuxpresso.tools.macosx_11.7.0.202209140929/tools/bin/../lib/gcc/arm-none-eabi/10.3.1/../../../../arm-none-eabi/lib/thumb/v7e-m+fp/hard/libcr_c.a(_fdopen.o)
 .comment       0x0000000000000049       0x4a /Applications/MCUXpressoIDE_11.7.0_9198/ide/plugins/com.nxp.mcuxpresso.tools.macosx_11.7.0.202209140929/tools/bin/../lib/gcc/arm-none-eabi/10.3.1/../../../../arm-none-eabi/lib/thumb/v7e-m+fp/hard/libcr_c.a(_fflush.o)
 .comment       0x0000000000000049       0x4a /Applications/MCUXpressoIDE_11.7.0_9198/ide/plugins/com.nxp.mcuxpresso.tools.macosx_11.7.0.202209140929/tools/bin/../lib/gcc/arm-none-eabi/10.3.1/../../../../arm-none-eabi/lib/thumb/v7e-m+fp/hard/libcr_c.a(_writebuf.o)
 .comment       0x0000000000000049       0x4a /Applications/MCUXpressoIDE_11.7.0_9198/ide/plugins/com.nxp.mcuxpresso.tools.macosx_11.7.0.202209140929/tools/bin/../lib/gcc/arm-none-eabi/10.3.1/../../../../arm-none-eabi/lib/thumb/v7e-m+fp/hard/libcr_c.a(fclose.o)
 .comment       0x0000000000000049       0x4a /Applications/MCUXpressoIDE_11.7.0_9198/ide/plugins/com.nxp.mcuxpresso.tools.macosx_11.7.0.202209140929/tools/bin/../lib/gcc/arm-none-eabi/10.3.1/../../../../arm-none-eabi/lib/thumb/v7e-m+fp/hard/libcr_c.a(fflush.o)
 .comment       0x0000000000000049       0x4a /Applications/MCUXpressoIDE_11.7.0_9198/ide/plugins/com.nxp.mcuxpresso.tools.macosx_11.7.0.202209140929/tools/bin/../lib/gcc/arm-none-eabi/10.3.1/../../../../arm-none-eabi/lib/thumb/v7e-m+fp/hard/libcr_c.a(fseek.o)
 .comment       0x0000000000000049       0x4a /Applications/MCUXpressoIDE_11.7.0_9198/ide/plugins/com.nxp.mcuxpresso.tools.macosx_11.7.0.202209140929/tools/bin/../lib/gcc/arm-none-eabi/10.3.1/../../../../arm-none-eabi/lib/thumb/v7e-m+fp/hard/libcr_c.a(ftell.o)
 .comment       0x0000000000000049       0x4a /Applications/MCUXpressoIDE_11.7.0_9198/ide/plugins/com.nxp.mcuxpresso.tools.macosx_11.7.0.202209140929/tools/bin/../lib/gcc/arm-none-eabi/10.3.1/../../../../arm-none-eabi/lib/thumb/v7e-m+fp/hard/libcr_c.a(remove.o)
 .comment       0x0000000000000049       0x4a /Applications/MCUXpressoIDE_11.7.0_9198/ide/plugins/com.nxp.mcuxpresso.tools.macosx_11.7.0.202209140929/tools/bin/../lib/gcc/arm-none-eabi/10.3.1/../../../../arm-none-eabi/lib/thumb/v7e-m+fp/hard/libcr_c.a(_do_fflush.o)
 .comment       0x0000000000000049       0x4a /Applications/MCUXpressoIDE_11.7.0_9198/ide/plugins/com.nxp.mcuxpresso.tools.macosx_11.7.0.202209140929/tools/bin/../lib/gcc/arm-none-eabi/10.3.1/thumb/v7e-m+fp/hard/libcr_eabihelpers.a(double.o)
 .comment       0x0000000000000049       0x4a /Applications/MCUXpressoIDE_11.7.0_9198/ide/plugins/com.nxp.mcuxpresso.tools.macosx_11.7.0.202209140929/tools/bin/../lib/gcc/arm-none-eabi/10.3.1/../../../../arm-none-eabi/lib/thumb/v7e-m+fp/hard/libcr_nohost_nf.a(__ciob.o)
 .comment       0x0000000000000049       0x4a /Applications/MCUXpressoIDE_11.7.0_9198/ide/plugins/com.nxp.mcuxpresso.tools.macosx_11.7.0.202209140929/tools/bin/../lib/gcc/arm-none-eabi/10.3.1/../../../../arm-none-eabi/lib/thumb/v7e-m+fp/hard/libcr_nohost_nf.a(__sys_close.o)
 .comment       0x0000000000000049       0x4a /Applications/MCUXpressoIDE_11.7.0_9198/ide/plugins/com.nxp.mcuxpresso.tools.macosx_11.7.0.202209140929/tools/bin/../lib/gcc/arm-none-eabi/10.3.1/../../../../arm-none-eabi/lib/thumb/v7e-m+fp/hard/libcr_nohost_nf.a(__sys_flen.o)
 .comment       0x0000000000000049       0x4a /Applications/MCUXpressoIDE_11.7.0_9198/ide/plugins/com.nxp.mcuxpresso.tools.macosx_11.7.0.202209140929/tools/bin/../lib/gcc/arm-none-eabi/10.3.1/../../../../arm-none-eabi/lib/thumb/v7e-m+fp/hard/libcr_nohost_nf.a(__sys_istty.o)
 .comment       0x0000000000000049       0x4a /Applications/MCUXpressoIDE_11.7.0_9198/ide/plugins/com.nxp.mcuxpresso.tools.macosx_11.7.0.202209140929/tools/bin/../lib/gcc/arm-none-eabi/10.3.1/../../../../arm-none-eabi/lib/thumb/v7e-m+fp/hard/libcr_nohost_nf.a(__sys_remove.o)
 .comment       0x0000000000000049       0x4a /Applications/MCUXpressoIDE_11.7.0_9198/ide/plugins/com.nxp.mcuxpresso.tools.macosx_11.7.0.202209140929/tools/bin/../lib/gcc/arm-none-eabi/10.3.1/../../../../arm-none-eabi/lib/thumb/v7e-m+fp/hard/libcr_nohost_nf.a(__sys_seek.o)
 .comment       0x0000000000000049       0x4a /Applications/MCUXpressoIDE_11.7.0_9198/ide/plugins/com.nxp.mcuxpresso.tools.macosx_11.7.0.202209140929/tools/bin/../lib/gcc/arm-none-eabi/10.3.1/../../../../arm-none-eabi/lib/thumb/v7e-m+fp/hard/libcr_nohost_nf.a(__sys_tmpnam.o)
 .comment       0x0000000000000049       0x4a /Applications/MCUXpressoIDE_11.7.0_9198/ide/plugins/com.nxp.mcuxpresso.tools.macosx_11.7.0.202209140929/tools/bin/../lib/gcc/arm-none-eabi/10.3.1/../../../../arm-none-eabi/lib/thumb/v7e-m+fp/hard/libcr_nohost_nf.a(__sys_write.o)

.ARM.attributes
                0x0000000000000000       0x32
 .ARM.attributes
                0x0000000000000000       0x34 ./utilities/fsl_debug_console.o
 .ARM.attributes
                0x0000000000000034       0x34 ./utilities/fsl_str.o
 .ARM.attributes
                0x0000000000000068       0x34 ./startup/startup_mimxrt1176_cm7.o
 .ARM.attributes
                0x000000000000009c       0x34 ./source/MIMXRT1176_Project.o
 .ARM.attributes
                0x00000000000000d0       0x34 ./source/semihost_hardfault.o
 .ARM.attributes
                0x0000000000000104       0x34 ./drivers/fsl_anatop_ai.o
 .ARM.attributes
                0x0000000000000138       0x34 ./drivers/fsl_clock.o
 .ARM.attributes
                0x000000000000016c       0x34 ./drivers/fsl_common_arm.o
 .ARM.attributes
                0x00000000000001a0       0x34 ./drivers/fsl_dcdc.o
 .ARM.attributes
                0x00000000000001d4       0x34 ./drivers/fsl_lpuart.o
 .ARM.attributes
                0x0000000000000208       0x34 ./drivers/fsl_pmu.o
 .ARM.attributes
                0x000000000000023c       0x34 ./device/system_MIMXRT1176_cm7.o
 .ARM.attributes
                0x0000000000000270       0x34 ./component/uart/fsl_adapter_lpuart.o
 .ARM.attributes
                0x00000000000002a4       0x34 ./component/serial_manager/fsl_component_serial_manager.o
 .ARM.attributes
                0x00000000000002d8       0x34 ./component/serial_manager/fsl_component_serial_port_uart.o
 .ARM.attributes
                0x000000000000030c       0x34 ./board/board.o
 .ARM.attributes
                0x0000000000000340       0x34 ./board/clock_config.o
 .ARM.attributes
                0x0000000000000374       0x34 ./board/peripherals.o
 .ARM.attributes
                0x00000000000003a8       0x34 ./board/pin_mux.o
 .ARM.attributes
                0x00000000000003dc       0x34 /Applications/MCUXpressoIDE_11.7.0_9198/ide/plugins/com.nxp.mcuxpresso.tools.macosx_11.7.0.202209140929/tools/bin/../lib/gcc/arm-none-eabi/10.3.1/../../../../arm-none-eabi/lib/thumb/v7e-m+fp/hard/libcr_nohost_nf.a(_cr__main.o)
 .ARM.attributes
                0x0000000000000410       0x34 /Applications/MCUXpressoIDE_11.7.0_9198/ide/plugins/com.nxp.mcuxpresso.tools.macosx_11.7.0.202209140929/tools/bin/../lib/gcc/arm-none-eabi/10.3.1/../../../../arm-none-eabi/lib/thumb/v7e-m+fp/hard/libcr_c.a(memcpy.o)
 .ARM.attributes
                0x0000000000000444       0x34 /Applications/MCUXpressoIDE_11.7.0_9198/ide/plugins/com.nxp.mcuxpresso.tools.macosx_11.7.0.202209140929/tools/bin/../lib/gcc/arm-none-eabi/10.3.1/../../../../arm-none-eabi/lib/thumb/v7e-m+fp/hard/libcr_c.a(memset.o)
 .ARM.attributes
                0x0000000000000478       0x34 /Applications/MCUXpressoIDE_11.7.0_9198/ide/plugins/com.nxp.mcuxpresso.tools.macosx_11.7.0.202209140929/tools/bin/../lib/gcc/arm-none-eabi/10.3.1/../../../../arm-none-eabi/lib/thumb/v7e-m+fp/hard/libcr_c.a(alloc.o)
 .ARM.attributes
                0x00000000000004ac       0x34 /Applications/MCUXpressoIDE_11.7.0_9198/ide/plugins/com.nxp.mcuxpresso.tools.macosx_11.7.0.202209140929/tools/bin/../lib/gcc/arm-none-eabi/10.3.1/../../../../arm-none-eabi/lib/thumb/v7e-m+fp/hard/libcr_c.a(errno.o)
 .ARM.attributes
                0x00000000000004e0       0x34 /Applications/MCUXpressoIDE_11.7.0_9198/ide/plugins/com.nxp.mcuxpresso.tools.macosx_11.7.0.202209140929/tools/bin/../lib/gcc/arm-none-eabi/10.3.1/../../../../arm-none-eabi/lib/thumb/v7e-m+fp/hard/libcr_c.a(initio.o)
 .ARM.attributes
                0x0000000000000514       0x34 /Applications/MCUXpressoIDE_11.7.0_9198/ide/plugins/com.nxp.mcuxpresso.tools.macosx_11.7.0.202209140929/tools/bin/../lib/gcc/arm-none-eabi/10.3.1/../../../../arm-none-eabi/lib/thumb/v7e-m+fp/hard/libcr_c.a(setvbuf.o)
 .ARM.attributes
                0x0000000000000548       0x34 /Applications/MCUXpressoIDE_11.7.0_9198/ide/plugins/com.nxp.mcuxpresso.tools.macosx_11.7.0.202209140929/tools/bin/../lib/gcc/arm-none-eabi/10.3.1/../../../../arm-none-eabi/lib/thumb/v7e-m+fp/hard/libcr_c.a(strlen.o)
 .ARM.attributes
                0x000000000000057c       0x34 /Applications/MCUXpressoIDE_11.7.0_9198/ide/plugins/com.nxp.mcuxpresso.tools.macosx_11.7.0.202209140929/tools/bin/../lib/gcc/arm-none-eabi/10.3.1/../../../../arm-none-eabi/lib/thumb/v7e-m+fp/hard/libcr_c.a(_deferredlazyseek.o)
 .ARM.attributes
                0x00000000000005b0       0x34 /Applications/MCUXpressoIDE_11.7.0_9198/ide/plugins/com.nxp.mcuxpresso.tools.macosx_11.7.0.202209140929/tools/bin/../lib/gcc/arm-none-eabi/10.3.1/../../../../arm-none-eabi/lib/thumb/v7e-m+fp/hard/libcr_c.a(_fdopen.o)
 .ARM.attributes
                0x00000000000005e4       0x34 /Applications/MCUXpressoIDE_11.7.0_9198/ide/plugins/com.nxp.mcuxpresso.tools.macosx_11.7.0.202209140929/tools/bin/../lib/gcc/arm-none-eabi/10.3.1/../../../../arm-none-eabi/lib/thumb/v7e-m+fp/hard/libcr_c.a(_fflush.o)
 .ARM.attributes
                0x0000000000000618       0x34 /Applications/MCUXpressoIDE_11.7.0_9198/ide/plugins/com.nxp.mcuxpresso.tools.macosx_11.7.0.202209140929/tools/bin/../lib/gcc/arm-none-eabi/10.3.1/../../../../arm-none-eabi/lib/thumb/v7e-m+fp/hard/libcr_c.a(_writebuf.o)
 .ARM.attributes
                0x000000000000064c       0x34 /Applications/MCUXpressoIDE_11.7.0_9198/ide/plugins/com.nxp.mcuxpresso.tools.macosx_11.7.0.202209140929/tools/bin/../lib/gcc/arm-none-eabi/10.3.1/../../../../arm-none-eabi/lib/thumb/v7e-m+fp/hard/libcr_c.a(fclose.o)
 .ARM.attributes
                0x0000000000000680       0x34 /Applications/MCUXpressoIDE_11.7.0_9198/ide/plugins/com.nxp.mcuxpresso.tools.macosx_11.7.0.202209140929/tools/bin/../lib/gcc/arm-none-eabi/10.3.1/../../../../arm-none-eabi/lib/thumb/v7e-m+fp/hard/libcr_c.a(fflush.o)
 .ARM.attributes
                0x00000000000006b4       0x34 /Applications/MCUXpressoIDE_11.7.0_9198/ide/plugins/com.nxp.mcuxpresso.tools.macosx_11.7.0.202209140929/tools/bin/../lib/gcc/arm-none-eabi/10.3.1/../../../../arm-none-eabi/lib/thumb/v7e-m+fp/hard/libcr_c.a(fseek.o)
 .ARM.attributes
                0x00000000000006e8       0x34 /Applications/MCUXpressoIDE_11.7.0_9198/ide/plugins/com.nxp.mcuxpresso.tools.macosx_11.7.0.202209140929/tools/bin/../lib/gcc/arm-none-eabi/10.3.1/../../../../arm-none-eabi/lib/thumb/v7e-m+fp/hard/libcr_c.a(ftell.o)
 .ARM.attributes
                0x000000000000071c       0x34 /Applications/MCUXpressoIDE_11.7.0_9198/ide/plugins/com.nxp.mcuxpresso.tools.macosx_11.7.0.202209140929/tools/bin/../lib/gcc/arm-none-eabi/10.3.1/../../../../arm-none-eabi/lib/thumb/v7e-m+fp/hard/libcr_c.a(remove.o)
 .ARM.attributes
                0x0000000000000750       0x34 /Applications/MCUXpressoIDE_11.7.0_9198/ide/plugins/com.nxp.mcuxpresso.tools.macosx_11.7.0.202209140929/tools/bin/../lib/gcc/arm-none-eabi/10.3.1/../../../../arm-none-eabi/lib/thumb/v7e-m+fp/hard/libcr_c.a(_do_fflush.o)
 .ARM.attributes
                0x0000000000000784       0x20 /Applications/MCUXpressoIDE_11.7.0_9198/ide/plugins/com.nxp.mcuxpresso.tools.macosx_11.7.0.202209140929/tools/bin/../lib/gcc/arm-none-eabi/10.3.1/thumb/v7e-m+fp/hard/libcr_eabihelpers.a(division_64.o)
 .ARM.attributes
                0x00000000000007a4       0x20 /Applications/MCUXpressoIDE_11.7.0_9198/ide/plugins/com.nxp.mcuxpresso.tools.macosx_11.7.0.202209140929/tools/bin/../lib/gcc/arm-none-eabi/10.3.1/thumb/v7e-m+fp/hard/libcr_eabihelpers.a(division_idiv0.o)
 .ARM.attributes
                0x00000000000007c4       0x34 /Applications/MCUXpressoIDE_11.7.0_9198/ide/plugins/com.nxp.mcuxpresso.tools.macosx_11.7.0.202209140929/tools/bin/../lib/gcc/arm-none-eabi/10.3.1/thumb/v7e-m+fp/hard/libcr_eabihelpers.a(double.o)
 .ARM.attributes
                0x00000000000007f8       0x20 /Applications/MCUXpressoIDE_11.7.0_9198/ide/plugins/com.nxp.mcuxpresso.tools.macosx_11.7.0.202209140929/tools/bin/../lib/gcc/arm-none-eabi/10.3.1/thumb/v7e-m+fp/hard/libcr_eabihelpers.a(memcpy.o)
 .ARM.attributes
                0x0000000000000818       0x34 /Applications/MCUXpressoIDE_11.7.0_9198/ide/plugins/com.nxp.mcuxpresso.tools.macosx_11.7.0.202209140929/tools/bin/../lib/gcc/arm-none-eabi/10.3.1/../../../../arm-none-eabi/lib/thumb/v7e-m+fp/hard/libcr_nohost_nf.a(__ciob.o)
 .ARM.attributes
                0x000000000000084c       0x34 /Applications/MCUXpressoIDE_11.7.0_9198/ide/plugins/com.nxp.mcuxpresso.tools.macosx_11.7.0.202209140929/tools/bin/../lib/gcc/arm-none-eabi/10.3.1/../../../../arm-none-eabi/lib/thumb/v7e-m+fp/hard/libcr_nohost_nf.a(__sys_close.o)
 .ARM.attributes
                0x0000000000000880       0x34 /Applications/MCUXpressoIDE_11.7.0_9198/ide/plugins/com.nxp.mcuxpresso.tools.macosx_11.7.0.202209140929/tools/bin/../lib/gcc/arm-none-eabi/10.3.1/../../../../arm-none-eabi/lib/thumb/v7e-m+fp/hard/libcr_nohost_nf.a(__sys_flen.o)
 .ARM.attributes
                0x00000000000008b4       0x34 /Applications/MCUXpressoIDE_11.7.0_9198/ide/plugins/com.nxp.mcuxpresso.tools.macosx_11.7.0.202209140929/tools/bin/../lib/gcc/arm-none-eabi/10.3.1/../../../../arm-none-eabi/lib/thumb/v7e-m+fp/hard/libcr_nohost_nf.a(__sys_istty.o)
 .ARM.attributes
                0x00000000000008e8       0x34 /Applications/MCUXpressoIDE_11.7.0_9198/ide/plugins/com.nxp.mcuxpresso.tools.macosx_11.7.0.202209140929/tools/bin/../lib/gcc/arm-none-eabi/10.3.1/../../../../arm-none-eabi/lib/thumb/v7e-m+fp/hard/libcr_nohost_nf.a(__sys_remove.o)
 .ARM.attributes
                0x000000000000091c       0x34 /Applications/MCUXpressoIDE_11.7.0_9198/ide/plugins/com.nxp.mcuxpresso.tools.macosx_11.7.0.202209140929/tools/bin/../lib/gcc/arm-none-eabi/10.3.1/../../../../arm-none-eabi/lib/thumb/v7e-m+fp/hard/libcr_nohost_nf.a(__sys_seek.o)
 .ARM.attributes
                0x0000000000000950       0x34 /Applications/MCUXpressoIDE_11.7.0_9198/ide/plugins/com.nxp.mcuxpresso.tools.macosx_11.7.0.202209140929/tools/bin/../lib/gcc/arm-none-eabi/10.3.1/../../../../arm-none-eabi/lib/thumb/v7e-m+fp/hard/libcr_nohost_nf.a(__sys_tmpnam.o)
 .ARM.attributes
                0x0000000000000984       0x34 /Applications/MCUXpressoIDE_11.7.0_9198/ide/plugins/com.nxp.mcuxpresso.tools.macosx_11.7.0.202209140929/tools/bin/../lib/gcc/arm-none-eabi/10.3.1/../../../../arm-none-eabi/lib/thumb/v7e-m+fp/hard/libcr_nohost_nf.a(__sys_write.o)

.debug_frame    0x0000000000000000     0x2bd4
 .debug_frame   0x0000000000000000      0x244 ./utilities/fsl_debug_console.o
 .debug_frame   0x0000000000000244       0xb4 ./utilities/fsl_str.o
 .debug_frame   0x00000000000002f8     0x1558 ./startup/startup_mimxrt1176_cm7.o
 .debug_frame   0x0000000000001850       0x28 ./source/MIMXRT1176_Project.o
 .debug_frame   0x0000000000001878       0x20 ./source/semihost_hardfault.o
 .debug_frame   0x0000000000001898       0x70 ./drivers/fsl_anatop_ai.o
 .debug_frame   0x0000000000001908      0x65c ./drivers/fsl_clock.o
 .debug_frame   0x0000000000001f64       0x48 ./drivers/fsl_common_arm.o
 .debug_frame   0x0000000000001fac      0x160 ./drivers/fsl_dcdc.o
 .debug_frame   0x000000000000210c      0x3a0 ./drivers/fsl_lpuart.o
 .debug_frame   0x00000000000024ac      0x338 ./drivers/fsl_pmu.o
 .debug_frame   0x00000000000027e4       0x48 ./device/system_MIMXRT1176_cm7.o
 .debug_frame   0x000000000000282c       0x9c ./component/uart/fsl_adapter_lpuart.o
 .debug_frame   0x00000000000028c8      0x110 ./component/serial_manager/fsl_component_serial_manager.o
 .debug_frame   0x00000000000029d8       0x88 ./component/serial_manager/fsl_component_serial_port_uart.o
 .debug_frame   0x0000000000002a60       0x8c ./board/board.o
 .debug_frame   0x0000000000002aec       0x88 ./board/clock_config.o
 .debug_frame   0x0000000000002b74       0x30 ./board/peripherals.o
 .debug_frame   0x0000000000002ba4       0x30 ./board/pin_mux.o

Cross Reference Table

Symbol                                            File
ACMP1_DriverIRQHandler                            ./startup/startup_mimxrt1176_cm7.o
ACMP1_IRQHandler                                  ./startup/startup_mimxrt1176_cm7.o
ACMP2_DriverIRQHandler                            ./startup/startup_mimxrt1176_cm7.o
ACMP2_IRQHandler                                  ./startup/startup_mimxrt1176_cm7.o
ACMP3_DriverIRQHandler                            ./startup/startup_mimxrt1176_cm7.o
ACMP3_IRQHandler                                  ./startup/startup_mimxrt1176_cm7.o
ACMP4_DriverIRQHandler                            ./startup/startup_mimxrt1176_cm7.o
ACMP4_IRQHandler                                  ./startup/startup_mimxrt1176_cm7.o
ADC1_DriverIRQHandler                             ./startup/startup_mimxrt1176_cm7.o
ADC1_IRQHandler                                   ./startup/startup_mimxrt1176_cm7.o
ADC2_DriverIRQHandler                             ./startup/startup_mimxrt1176_cm7.o
ADC2_IRQHandler                                   ./startup/startup_mimxrt1176_cm7.o
ADC_ETC_ERROR_IRQ_DriverIRQHandler                ./startup/startup_mimxrt1176_cm7.o
ADC_ETC_ERROR_IRQ_IRQHandler                      ./startup/startup_mimxrt1176_cm7.o
ADC_ETC_IRQ0_DriverIRQHandler                     ./startup/startup_mimxrt1176_cm7.o
ADC_ETC_IRQ0_IRQHandler                           ./startup/startup_mimxrt1176_cm7.o
ADC_ETC_IRQ1_DriverIRQHandler                     ./startup/startup_mimxrt1176_cm7.o
ADC_ETC_IRQ1_IRQHandler                           ./startup/startup_mimxrt1176_cm7.o
ADC_ETC_IRQ2_DriverIRQHandler                     ./startup/startup_mimxrt1176_cm7.o
ADC_ETC_IRQ2_IRQHandler                           ./startup/startup_mimxrt1176_cm7.o
ADC_ETC_IRQ3_DriverIRQHandler                     ./startup/startup_mimxrt1176_cm7.o
ADC_ETC_IRQ3_IRQHandler                           ./startup/startup_mimxrt1176_cm7.o
ANATOP_AI_Access                                  ./drivers/fsl_anatop_ai.o
ANATOP_AI_Read                                    ./drivers/fsl_anatop_ai.o
                                                  ./drivers/fsl_pmu.o
                                                  ./drivers/fsl_clock.o
ANATOP_AI_Write                                   ./drivers/fsl_anatop_ai.o
                                                  ./drivers/fsl_pmu.o
                                                  ./drivers/fsl_clock.o
ANATOP_AI_WriteWithMaskShift                      ./drivers/fsl_anatop_ai.o
                                                  ./drivers/fsl_clock.o
ASRC_DriverIRQHandler                             ./startup/startup_mimxrt1176_cm7.o
ASRC_IRQHandler                                   ./startup/startup_mimxrt1176_cm7.o
BOARD_BootClockRUN                                ./board/clock_config.o
BOARD_BootClockRUN_800M                           ./board/clock_config.o
BOARD_ConfigMPU                                   ./board/board.o
BOARD_DebugConsoleSrcFreq                         ./board/board.o
BOARD_InitBootClocks                              ./board/clock_config.o
                                                  ./source/MIMXRT1176_Project.o
BOARD_InitBootPeripherals                         ./board/peripherals.o
                                                  ./source/MIMXRT1176_Project.o
BOARD_InitBootPins                                ./board/pin_mux.o
                                                  ./source/MIMXRT1176_Project.o
BOARD_InitDebugConsole                            ./board/board.o
                                                  ./source/MIMXRT1176_Project.o
BOARD_InitPeripherals                             ./board/peripherals.o
BOARD_InitPins                                    ./board/pin_mux.o
BOARD_MMC_Pin_Config                              ./board/board.o
BOARD_SD_Pin_Config                               ./board/board.o
BusFault_Handler                                  ./startup/startup_mimxrt1176_cm7.o
CAAM_IRQ0_DriverIRQHandler                        ./startup/startup_mimxrt1176_cm7.o
CAAM_IRQ0_IRQHandler                              ./startup/startup_mimxrt1176_cm7.o
CAAM_IRQ1_DriverIRQHandler                        ./startup/startup_mimxrt1176_cm7.o
CAAM_IRQ1_IRQHandler                              ./startup/startup_mimxrt1176_cm7.o
CAAM_IRQ2_DriverIRQHandler                        ./startup/startup_mimxrt1176_cm7.o
CAAM_IRQ2_IRQHandler                              ./startup/startup_mimxrt1176_cm7.o
CAAM_IRQ3_DriverIRQHandler                        ./startup/startup_mimxrt1176_cm7.o
CAAM_IRQ3_IRQHandler                              ./startup/startup_mimxrt1176_cm7.o
CAAM_RECORVE_ERRPR_DriverIRQHandler               ./startup/startup_mimxrt1176_cm7.o
CAAM_RECORVE_ERRPR_IRQHandler                     ./startup/startup_mimxrt1176_cm7.o
CAAM_RTIC_DriverIRQHandler                        ./startup/startup_mimxrt1176_cm7.o
CAAM_RTIC_IRQHandler                              ./startup/startup_mimxrt1176_cm7.o
CAN1_DriverIRQHandler                             ./startup/startup_mimxrt1176_cm7.o
CAN1_ERROR_DriverIRQHandler                       ./startup/startup_mimxrt1176_cm7.o
CAN1_ERROR_IRQHandler                             ./startup/startup_mimxrt1176_cm7.o
CAN1_IRQHandler                                   ./startup/startup_mimxrt1176_cm7.o
CAN2_DriverIRQHandler                             ./startup/startup_mimxrt1176_cm7.o
CAN2_ERROR_DriverIRQHandler                       ./startup/startup_mimxrt1176_cm7.o
CAN2_ERROR_IRQHandler                             ./startup/startup_mimxrt1176_cm7.o
CAN2_IRQHandler                                   ./startup/startup_mimxrt1176_cm7.o
CAN3_DriverIRQHandler                             ./startup/startup_mimxrt1176_cm7.o
CAN3_ERROR_DriverIRQHandler                       ./startup/startup_mimxrt1176_cm7.o
CAN3_ERROR_IRQHandler                             ./startup/startup_mimxrt1176_cm7.o
CAN3_IRQHandler                                   ./startup/startup_mimxrt1176_cm7.o
CDOG_DriverIRQHandler                             ./startup/startup_mimxrt1176_cm7.o
CDOG_IRQHandler                                   ./startup/startup_mimxrt1176_cm7.o
CLOCK_CalcArmPllFreq                              ./drivers/fsl_clock.o
CLOCK_CalcAvPllFreq                               ./drivers/fsl_clock.o
CLOCK_CalcPllSpreadSpectrum                       ./drivers/fsl_clock.o
CLOCK_DeinitArmPll                                ./drivers/fsl_clock.o
CLOCK_DeinitAudioPll                              ./drivers/fsl_clock.o
                                                  ./board/clock_config.o
CLOCK_DeinitPfd                                   ./drivers/fsl_clock.o
CLOCK_DeinitSysPll1                               ./drivers/fsl_clock.o
                                                  ./board/clock_config.o
CLOCK_DeinitSysPll2                               ./drivers/fsl_clock.o
CLOCK_DeinitSysPll3                               ./drivers/fsl_clock.o
CLOCK_DeinitVideoPll                              ./drivers/fsl_clock.o
CLOCK_DisableUsbhs0PhyPllClock                    ./drivers/fsl_clock.o
CLOCK_DisableUsbhs1PhyPllClock                    ./drivers/fsl_clock.o
CLOCK_EnableUsbhs0Clock                           ./drivers/fsl_clock.o
CLOCK_EnableUsbhs0PhyPllClock                     ./drivers/fsl_clock.o
CLOCK_EnableUsbhs1Clock                           ./drivers/fsl_clock.o
CLOCK_EnableUsbhs1PhyPllClock                     ./drivers/fsl_clock.o
CLOCK_GPC_SetAudioPllOutputFreq                   ./drivers/fsl_clock.o
CLOCK_GPC_SetSysPll1OutputFreq                    ./drivers/fsl_clock.o
CLOCK_GPC_SetVideoPllOutputFreq                   ./drivers/fsl_clock.o
CLOCK_GetFreq                                     ./drivers/fsl_clock.o
                                                  ./board/clock_config.o
                                                  ./board/board.o
CLOCK_GetFreqFromObs                              ./drivers/fsl_clock.o
CLOCK_GetPfdFreq                                  ./drivers/fsl_clock.o
CLOCK_GetPllFreq                                  ./drivers/fsl_clock.o
CLOCK_InitArmPll                                  ./drivers/fsl_clock.o
                                                  ./board/clock_config.o
CLOCK_InitArmPllWithFreq                          ./drivers/fsl_clock.o
CLOCK_InitAudioPll                                ./drivers/fsl_clock.o
CLOCK_InitAudioPllWithFreq                        ./drivers/fsl_clock.o
CLOCK_InitPfd                                     ./drivers/fsl_clock.o
                                                  ./board/clock_config.o
CLOCK_InitSysPll1                                 ./drivers/fsl_clock.o
CLOCK_InitSysPll2                                 ./drivers/fsl_clock.o
                                                  ./board/clock_config.o
CLOCK_InitSysPll3                                 ./drivers/fsl_clock.o
                                                  ./board/clock_config.o
CLOCK_InitVideoPll                                ./drivers/fsl_clock.o
                                                  ./board/clock_config.o
CLOCK_InitVideoPllWithFreq                        ./drivers/fsl_clock.o
CLOCK_IsSysPll2PfdEnabled                         ./drivers/fsl_clock.o
CLOCK_IsSysPll3PfdEnabled                         ./drivers/fsl_clock.o
CLOCK_LPCG_ControlByCpuLowPowerMode               ./drivers/fsl_clock.o
CLOCK_LPCG_ControlBySetPointMode                  ./drivers/fsl_clock.o
CLOCK_OSCPLL_ControlByCpuLowPowerMode             ./drivers/fsl_clock.o
CLOCK_OSCPLL_ControlBySetPointMode                ./drivers/fsl_clock.o
CLOCK_OSC_BypassOscRc400MTuneLogic                ./drivers/fsl_clock.o
CLOCK_OSC_CheckLocked1MHzErrorFlag                ./drivers/fsl_clock.o
CLOCK_OSC_ClearLocked1MHzErrorFlag                ./drivers/fsl_clock.o
CLOCK_OSC_EnableOsc24M                            ./drivers/fsl_clock.o
CLOCK_OSC_EnableOscRc400M                         ./drivers/fsl_clock.o
                                                  ./board/clock_config.o
CLOCK_OSC_EnableOscRc400MTuneLogic                ./drivers/fsl_clock.o
CLOCK_OSC_FreezeOscRc400MTuneValue                ./drivers/fsl_clock.o
CLOCK_OSC_GetCurrentOscRc400MFastClockCount       ./drivers/fsl_clock.o
CLOCK_OSC_GetCurrentOscRc400MTuneValue            ./drivers/fsl_clock.o
CLOCK_OSC_Set1MHzOutputBehavior                   ./drivers/fsl_clock.o
                                                  ./board/clock_config.o
CLOCK_OSC_SetLocked1MHzCount                      ./drivers/fsl_clock.o
CLOCK_OSC_SetOsc16MConfig                         ./drivers/fsl_clock.o
CLOCK_OSC_SetOsc24MWorkMode                       ./drivers/fsl_clock.o
CLOCK_OSC_SetOscRc400MFastClkCount                ./drivers/fsl_clock.o
CLOCK_OSC_SetOscRc400MHysteresisValue             ./drivers/fsl_clock.o
CLOCK_OSC_SetOscRc400MRefClkDiv                   ./drivers/fsl_clock.o
CLOCK_OSC_SetOscRc400MTuneValue                   ./drivers/fsl_clock.o
CLOCK_OSC_TrimOscRc400M                           ./drivers/fsl_clock.o
CLOCK_ROOT_ControlBySetPointMode                  ./drivers/fsl_clock.o
CLOCK_SetGroupConfig                              ./drivers/fsl_clock.o
CLOCK_SetPllBypass                                ./drivers/fsl_clock.o
                                                  ./board/clock_config.o
CM7_GPIO2_3_DriverIRQHandler                      ./startup/startup_mimxrt1176_cm7.o
CM7_GPIO2_3_IRQHandler                            ./startup/startup_mimxrt1176_cm7.o
CORE_DriverIRQHandler                             ./startup/startup_mimxrt1176_cm7.o
CORE_IRQHandler                                   ./startup/startup_mimxrt1176_cm7.o
CSI_DriverIRQHandler                              ./startup/startup_mimxrt1176_cm7.o
CSI_IRQHandler                                    ./startup/startup_mimxrt1176_cm7.o
CTI_TRIGGER_OUT0_DriverIRQHandler                 ./startup/startup_mimxrt1176_cm7.o
CTI_TRIGGER_OUT0_IRQHandler                       ./startup/startup_mimxrt1176_cm7.o
CTI_TRIGGER_OUT1_DriverIRQHandler                 ./startup/startup_mimxrt1176_cm7.o
CTI_TRIGGER_OUT1_IRQHandler                       ./startup/startup_mimxrt1176_cm7.o
DAC_DriverIRQHandler                              ./startup/startup_mimxrt1176_cm7.o
DAC_IRQHandler                                    ./startup/startup_mimxrt1176_cm7.o
DCDC_BootIntoCCM                                  ./drivers/fsl_dcdc.o
DCDC_BootIntoDCM                                  ./drivers/fsl_dcdc.o
                                                  ./board/clock_config.o
DCDC_Deinit                                       ./drivers/fsl_dcdc.o
DCDC_GetDefaultConfig                             ./drivers/fsl_dcdc.o
DCDC_GetDefaultDetectionConfig                    ./drivers/fsl_dcdc.o
DCDC_GetDefaultLoopControlConfig                  ./drivers/fsl_dcdc.o
DCDC_GetDefaultLowPowerConfig                     ./drivers/fsl_dcdc.o
DCDC_Init                                         ./drivers/fsl_dcdc.o
DCDC_SetClockSource                               ./drivers/fsl_dcdc.o
DCDC_SetDetectionConfig                           ./drivers/fsl_dcdc.o
DCDC_SetInternalRegulatorConfig                   ./drivers/fsl_dcdc.o
DCDC_SetLoopControlConfig                         ./drivers/fsl_dcdc.o
DCDC_SetLowPowerConfig                            ./drivers/fsl_dcdc.o
DCDC_SetMinPowerConfig                            ./drivers/fsl_dcdc.o
DCDC_SetPointInit                                 ./drivers/fsl_dcdc.o
DCIC1_DriverIRQHandler                            ./startup/startup_mimxrt1176_cm7.o
DCIC1_IRQHandler                                  ./startup/startup_mimxrt1176_cm7.o
DCIC2_DriverIRQHandler                            ./startup/startup_mimxrt1176_cm7.o
DCIC2_IRQHandler                                  ./startup/startup_mimxrt1176_cm7.o
DMA0_DMA16_DriverIRQHandler                       ./startup/startup_mimxrt1176_cm7.o
DMA0_DMA16_IRQHandler                             ./startup/startup_mimxrt1176_cm7.o
DMA10_DMA26_DriverIRQHandler                      ./startup/startup_mimxrt1176_cm7.o
DMA10_DMA26_IRQHandler                            ./startup/startup_mimxrt1176_cm7.o
DMA11_DMA27_DriverIRQHandler                      ./startup/startup_mimxrt1176_cm7.o
DMA11_DMA27_IRQHandler                            ./startup/startup_mimxrt1176_cm7.o
DMA12_DMA28_DriverIRQHandler                      ./startup/startup_mimxrt1176_cm7.o
DMA12_DMA28_IRQHandler                            ./startup/startup_mimxrt1176_cm7.o
DMA13_DMA29_DriverIRQHandler                      ./startup/startup_mimxrt1176_cm7.o
DMA13_DMA29_IRQHandler                            ./startup/startup_mimxrt1176_cm7.o
DMA14_DMA30_DriverIRQHandler                      ./startup/startup_mimxrt1176_cm7.o
DMA14_DMA30_IRQHandler                            ./startup/startup_mimxrt1176_cm7.o
DMA15_DMA31_DriverIRQHandler                      ./startup/startup_mimxrt1176_cm7.o
DMA15_DMA31_IRQHandler                            ./startup/startup_mimxrt1176_cm7.o
DMA1_DMA17_DriverIRQHandler                       ./startup/startup_mimxrt1176_cm7.o
DMA1_DMA17_IRQHandler                             ./startup/startup_mimxrt1176_cm7.o
DMA2_DMA18_DriverIRQHandler                       ./startup/startup_mimxrt1176_cm7.o
DMA2_DMA18_IRQHandler                             ./startup/startup_mimxrt1176_cm7.o
DMA3_DMA19_DriverIRQHandler                       ./startup/startup_mimxrt1176_cm7.o
DMA3_DMA19_IRQHandler                             ./startup/startup_mimxrt1176_cm7.o
DMA4_DMA20_DriverIRQHandler                       ./startup/startup_mimxrt1176_cm7.o
DMA4_DMA20_IRQHandler                             ./startup/startup_mimxrt1176_cm7.o
DMA5_DMA21_DriverIRQHandler                       ./startup/startup_mimxrt1176_cm7.o
DMA5_DMA21_IRQHandler                             ./startup/startup_mimxrt1176_cm7.o
DMA6_DMA22_DriverIRQHandler                       ./startup/startup_mimxrt1176_cm7.o
DMA6_DMA22_IRQHandler                             ./startup/startup_mimxrt1176_cm7.o
DMA7_DMA23_DriverIRQHandler                       ./startup/startup_mimxrt1176_cm7.o
DMA7_DMA23_IRQHandler                             ./startup/startup_mimxrt1176_cm7.o
DMA8_DMA24_DriverIRQHandler                       ./startup/startup_mimxrt1176_cm7.o
DMA8_DMA24_IRQHandler                             ./startup/startup_mimxrt1176_cm7.o
DMA9_DMA25_DriverIRQHandler                       ./startup/startup_mimxrt1176_cm7.o
DMA9_DMA25_IRQHandler                             ./startup/startup_mimxrt1176_cm7.o
DMA_ERROR_DriverIRQHandler                        ./startup/startup_mimxrt1176_cm7.o
DMA_ERROR_IRQHandler                              ./startup/startup_mimxrt1176_cm7.o
DbgConsole_BlockingPrintf                         ./utilities/fsl_debug_console.o
DbgConsole_BlockingVprintf                        ./utilities/fsl_debug_console.o
DbgConsole_Deinit                                 ./utilities/fsl_debug_console.o
DbgConsole_EnterLowpower                          ./utilities/fsl_debug_console.o
DbgConsole_ExitLowpower                           ./utilities/fsl_debug_console.o
DbgConsole_Flush                                  ./utilities/fsl_debug_console.o
DbgConsole_Getchar                                ./utilities/fsl_debug_console.o
DbgConsole_Init                                   ./utilities/fsl_debug_console.o
                                                  ./board/board.o
DbgConsole_Printf                                 ./utilities/fsl_debug_console.o
                                                  ./source/MIMXRT1176_Project.o
DbgConsole_Putchar                                ./utilities/fsl_debug_console.o
DbgConsole_ReadCharacter                          ./utilities/fsl_debug_console.o
DbgConsole_ReadLine                               ./utilities/fsl_debug_console.o
DbgConsole_ReadOneCharacter                       ./utilities/fsl_debug_console.o
DbgConsole_Scanf                                  ./utilities/fsl_debug_console.o
DbgConsole_SendData                               ./utilities/fsl_debug_console.o
DbgConsole_SendDataReliable                       ./utilities/fsl_debug_console.o
DbgConsole_Vprintf                                ./utilities/fsl_debug_console.o
DebugMon_Handler                                  ./startup/startup_mimxrt1176_cm7.o
EMVSIM1_DriverIRQHandler                          ./startup/startup_mimxrt1176_cm7.o
EMVSIM1_IRQHandler                                ./startup/startup_mimxrt1176_cm7.o
EMVSIM2_DriverIRQHandler                          ./startup/startup_mimxrt1176_cm7.o
EMVSIM2_IRQHandler                                ./startup/startup_mimxrt1176_cm7.o
ENC1_DriverIRQHandler                             ./startup/startup_mimxrt1176_cm7.o
ENC1_IRQHandler                                   ./startup/startup_mimxrt1176_cm7.o
ENC2_DriverIRQHandler                             ./startup/startup_mimxrt1176_cm7.o
ENC2_IRQHandler                                   ./startup/startup_mimxrt1176_cm7.o
ENC3_DriverIRQHandler                             ./startup/startup_mimxrt1176_cm7.o
ENC3_IRQHandler                                   ./startup/startup_mimxrt1176_cm7.o
ENC4_DriverIRQHandler                             ./startup/startup_mimxrt1176_cm7.o
ENC4_IRQHandler                                   ./startup/startup_mimxrt1176_cm7.o
ENET_1588_Timer_DriverIRQHandler                  ./startup/startup_mimxrt1176_cm7.o
ENET_1588_Timer_IRQHandler                        ./startup/startup_mimxrt1176_cm7.o
ENET_1G_1588_Timer_DriverIRQHandler               ./startup/startup_mimxrt1176_cm7.o
ENET_1G_1588_Timer_IRQHandler                     ./startup/startup_mimxrt1176_cm7.o
ENET_1G_DriverIRQHandler                          ./startup/startup_mimxrt1176_cm7.o
ENET_1G_IRQHandler                                ./startup/startup_mimxrt1176_cm7.o
ENET_1G_MAC0_Tx_Rx_1_DriverIRQHandler             ./startup/startup_mimxrt1176_cm7.o
ENET_1G_MAC0_Tx_Rx_1_IRQHandler                   ./startup/startup_mimxrt1176_cm7.o
ENET_1G_MAC0_Tx_Rx_2_DriverIRQHandler             ./startup/startup_mimxrt1176_cm7.o
ENET_1G_MAC0_Tx_Rx_2_IRQHandler                   ./startup/startup_mimxrt1176_cm7.o
ENET_DriverIRQHandler                             ./startup/startup_mimxrt1176_cm7.o
ENET_IRQHandler                                   ./startup/startup_mimxrt1176_cm7.o
ENET_QOS_DriverIRQHandler                         ./startup/startup_mimxrt1176_cm7.o
ENET_QOS_IRQHandler                               ./startup/startup_mimxrt1176_cm7.o
ENET_QOS_PMT_DriverIRQHandler                     ./startup/startup_mimxrt1176_cm7.o
ENET_QOS_PMT_IRQHandler                           ./startup/startup_mimxrt1176_cm7.o
EWM_DriverIRQHandler                              ./startup/startup_mimxrt1176_cm7.o
EWM_IRQHandler                                    ./startup/startup_mimxrt1176_cm7.o
FLEXIO1_DriverIRQHandler                          ./startup/startup_mimxrt1176_cm7.o
FLEXIO1_IRQHandler                                ./startup/startup_mimxrt1176_cm7.o
FLEXIO2_DriverIRQHandler                          ./startup/startup_mimxrt1176_cm7.o
FLEXIO2_IRQHandler                                ./startup/startup_mimxrt1176_cm7.o
FLEXRAM_DriverIRQHandler                          ./startup/startup_mimxrt1176_cm7.o
FLEXRAM_ECC_DriverIRQHandler                      ./startup/startup_mimxrt1176_cm7.o
FLEXRAM_ECC_IRQHandler                            ./startup/startup_mimxrt1176_cm7.o
FLEXRAM_IRQHandler                                ./startup/startup_mimxrt1176_cm7.o
FLEXSPI1_DriverIRQHandler                         ./startup/startup_mimxrt1176_cm7.o
FLEXSPI1_IRQHandler                               ./startup/startup_mimxrt1176_cm7.o
FLEXSPI2_DriverIRQHandler                         ./startup/startup_mimxrt1176_cm7.o
FLEXSPI2_IRQHandler                               ./startup/startup_mimxrt1176_cm7.o
GPC_DriverIRQHandler                              ./startup/startup_mimxrt1176_cm7.o
GPC_IRQHandler                                    ./startup/startup_mimxrt1176_cm7.o
GPIO13_Combined_0_31_DriverIRQHandler             ./startup/startup_mimxrt1176_cm7.o
GPIO13_Combined_0_31_IRQHandler                   ./startup/startup_mimxrt1176_cm7.o
GPIO1_Combined_0_15_DriverIRQHandler              ./startup/startup_mimxrt1176_cm7.o
GPIO1_Combined_0_15_IRQHandler                    ./startup/startup_mimxrt1176_cm7.o
GPIO1_Combined_16_31_DriverIRQHandler             ./startup/startup_mimxrt1176_cm7.o
GPIO1_Combined_16_31_IRQHandler                   ./startup/startup_mimxrt1176_cm7.o
GPIO2_Combined_0_15_DriverIRQHandler              ./startup/startup_mimxrt1176_cm7.o
GPIO2_Combined_0_15_IRQHandler                    ./startup/startup_mimxrt1176_cm7.o
GPIO2_Combined_16_31_DriverIRQHandler             ./startup/startup_mimxrt1176_cm7.o
GPIO2_Combined_16_31_IRQHandler                   ./startup/startup_mimxrt1176_cm7.o
GPIO3_Combined_0_15_DriverIRQHandler              ./startup/startup_mimxrt1176_cm7.o
GPIO3_Combined_0_15_IRQHandler                    ./startup/startup_mimxrt1176_cm7.o
GPIO3_Combined_16_31_DriverIRQHandler             ./startup/startup_mimxrt1176_cm7.o
GPIO3_Combined_16_31_IRQHandler                   ./startup/startup_mimxrt1176_cm7.o
GPIO4_Combined_0_15_DriverIRQHandler              ./startup/startup_mimxrt1176_cm7.o
GPIO4_Combined_0_15_IRQHandler                    ./startup/startup_mimxrt1176_cm7.o
GPIO4_Combined_16_31_DriverIRQHandler             ./startup/startup_mimxrt1176_cm7.o
GPIO4_Combined_16_31_IRQHandler                   ./startup/startup_mimxrt1176_cm7.o
GPIO5_Combined_0_15_DriverIRQHandler              ./startup/startup_mimxrt1176_cm7.o
GPIO5_Combined_0_15_IRQHandler                    ./startup/startup_mimxrt1176_cm7.o
GPIO5_Combined_16_31_DriverIRQHandler             ./startup/startup_mimxrt1176_cm7.o
GPIO5_Combined_16_31_IRQHandler                   ./startup/startup_mimxrt1176_cm7.o
GPIO6_Combined_0_15_DriverIRQHandler              ./startup/startup_mimxrt1176_cm7.o
GPIO6_Combined_0_15_IRQHandler                    ./startup/startup_mimxrt1176_cm7.o
GPIO6_Combined_16_31_DriverIRQHandler             ./startup/startup_mimxrt1176_cm7.o
GPIO6_Combined_16_31_IRQHandler                   ./startup/startup_mimxrt1176_cm7.o
GPIO_PinInit                                      ./drivers/fsl_gpio.o
GPIO_PinSetInterruptConfig                        ./drivers/fsl_gpio.o
GPIO_PinWrite                                     ./drivers/fsl_gpio.o
GPR_IRQ_DriverIRQHandler                          ./startup/startup_mimxrt1176_cm7.o
GPR_IRQ_IRQHandler                                ./startup/startup_mimxrt1176_cm7.o
GPT1_DriverIRQHandler                             ./startup/startup_mimxrt1176_cm7.o
GPT1_IRQHandler                                   ./startup/startup_mimxrt1176_cm7.o
GPT2_DriverIRQHandler                             ./startup/startup_mimxrt1176_cm7.o
GPT2_IRQHandler                                   ./startup/startup_mimxrt1176_cm7.o
GPT3_DriverIRQHandler                             ./startup/startup_mimxrt1176_cm7.o
GPT3_IRQHandler                                   ./startup/startup_mimxrt1176_cm7.o
GPT4_DriverIRQHandler                             ./startup/startup_mimxrt1176_cm7.o
GPT4_IRQHandler                                   ./startup/startup_mimxrt1176_cm7.o
GPT5_DriverIRQHandler                             ./startup/startup_mimxrt1176_cm7.o
GPT5_IRQHandler                                   ./startup/startup_mimxrt1176_cm7.o
GPT6_DriverIRQHandler                             ./startup/startup_mimxrt1176_cm7.o
GPT6_IRQHandler                                   ./startup/startup_mimxrt1176_cm7.o
GPU2D_DriverIRQHandler                            ./startup/startup_mimxrt1176_cm7.o
GPU2D_IRQHandler                                  ./startup/startup_mimxrt1176_cm7.o
HAL_UartDeinit                                    ./component/uart/fsl_adapter_lpuart.o
                                                  ./component/serial_manager/fsl_component_serial_port_uart.o
HAL_UartEnterLowpower                             ./component/uart/fsl_adapter_lpuart.o
                                                  ./component/serial_manager/fsl_component_serial_port_uart.o
HAL_UartExitLowpower                              ./component/uart/fsl_adapter_lpuart.o
                                                  ./component/serial_manager/fsl_component_serial_port_uart.o
HAL_UartInit                                      ./component/uart/fsl_adapter_lpuart.o
                                                  ./component/serial_manager/fsl_component_serial_port_uart.o
HAL_UartReceiveBlocking                           ./component/uart/fsl_adapter_lpuart.o
                                                  ./component/serial_manager/fsl_component_serial_port_uart.o
HAL_UartSendBlocking                              ./component/uart/fsl_adapter_lpuart.o
                                                  ./component/serial_manager/fsl_component_serial_port_uart.o
HardFault_Handler                                 ./source/semihost_hardfault.o
                                                  ./startup/startup_mimxrt1176_cm7.o
IntDefaultHandler                                 ./startup/startup_mimxrt1176_cm7.o
KEY_MANAGER_DriverIRQHandler                      ./startup/startup_mimxrt1176_cm7.o
KEY_MANAGER_IRQHandler                            ./startup/startup_mimxrt1176_cm7.o
KPP_DriverIRQHandler                              ./startup/startup_mimxrt1176_cm7.o
KPP_IRQHandler                                    ./startup/startup_mimxrt1176_cm7.o
LCDIFv2_DriverIRQHandler                          ./startup/startup_mimxrt1176_cm7.o
LCDIFv2_IRQHandler                                ./startup/startup_mimxrt1176_cm7.o
LIST_AddHead                                      ./component/lists/fsl_component_generic_list.o
LIST_AddPrevElement                               ./component/lists/fsl_component_generic_list.o
LIST_AddTail                                      ./component/lists/fsl_component_generic_list.o
LIST_GetAvailableSize                             ./component/lists/fsl_component_generic_list.o
LIST_GetHead                                      ./component/lists/fsl_component_generic_list.o
LIST_GetList                                      ./component/lists/fsl_component_generic_list.o
LIST_GetNext                                      ./component/lists/fsl_component_generic_list.o
LIST_GetPrev                                      ./component/lists/fsl_component_generic_list.o
LIST_GetSize                                      ./component/lists/fsl_component_generic_list.o
LIST_Init                                         ./component/lists/fsl_component_generic_list.o
LIST_RemoveElement                                ./component/lists/fsl_component_generic_list.o
LIST_RemoveHead                                   ./component/lists/fsl_component_generic_list.o
LPI2C1_DriverIRQHandler                           ./startup/startup_mimxrt1176_cm7.o
LPI2C1_IRQHandler                                 ./startup/startup_mimxrt1176_cm7.o
LPI2C2_DriverIRQHandler                           ./startup/startup_mimxrt1176_cm7.o
LPI2C2_IRQHandler                                 ./startup/startup_mimxrt1176_cm7.o
LPI2C3_DriverIRQHandler                           ./startup/startup_mimxrt1176_cm7.o
LPI2C3_IRQHandler                                 ./startup/startup_mimxrt1176_cm7.o
LPI2C4_DriverIRQHandler                           ./startup/startup_mimxrt1176_cm7.o
LPI2C4_IRQHandler                                 ./startup/startup_mimxrt1176_cm7.o
LPI2C5_DriverIRQHandler                           ./startup/startup_mimxrt1176_cm7.o
LPI2C5_IRQHandler                                 ./startup/startup_mimxrt1176_cm7.o
LPI2C6_DriverIRQHandler                           ./startup/startup_mimxrt1176_cm7.o
LPI2C6_IRQHandler                                 ./startup/startup_mimxrt1176_cm7.o
LPSPI1_DriverIRQHandler                           ./startup/startup_mimxrt1176_cm7.o
LPSPI1_IRQHandler                                 ./startup/startup_mimxrt1176_cm7.o
LPSPI2_DriverIRQHandler                           ./startup/startup_mimxrt1176_cm7.o
LPSPI2_IRQHandler                                 ./startup/startup_mimxrt1176_cm7.o
LPSPI3_DriverIRQHandler                           ./startup/startup_mimxrt1176_cm7.o
LPSPI3_IRQHandler                                 ./startup/startup_mimxrt1176_cm7.o
LPSPI4_DriverIRQHandler                           ./startup/startup_mimxrt1176_cm7.o
LPSPI4_IRQHandler                                 ./startup/startup_mimxrt1176_cm7.o
LPSPI5_DriverIRQHandler                           ./startup/startup_mimxrt1176_cm7.o
LPSPI5_IRQHandler                                 ./startup/startup_mimxrt1176_cm7.o
LPSPI6_DriverIRQHandler                           ./startup/startup_mimxrt1176_cm7.o
LPSPI6_IRQHandler                                 ./startup/startup_mimxrt1176_cm7.o
LPSR_LP0_BROWNOUT_DriverIRQHandler                ./startup/startup_mimxrt1176_cm7.o
LPSR_LP0_BROWNOUT_IRQHandler                      ./startup/startup_mimxrt1176_cm7.o
LPSR_LP8_BROWNOUT_DriverIRQHandler                ./startup/startup_mimxrt1176_cm7.o
LPSR_LP8_BROWNOUT_IRQHandler                      ./startup/startup_mimxrt1176_cm7.o
LPUART10_DriverIRQHandler                         ./drivers/fsl_lpuart.o
                                                  ./startup/startup_mimxrt1176_cm7.o
LPUART10_IRQHandler                               ./startup/startup_mimxrt1176_cm7.o
LPUART11_DriverIRQHandler                         ./drivers/fsl_lpuart.o
                                                  ./startup/startup_mimxrt1176_cm7.o
LPUART11_IRQHandler                               ./startup/startup_mimxrt1176_cm7.o
LPUART12_DriverIRQHandler                         ./drivers/fsl_lpuart.o
                                                  ./startup/startup_mimxrt1176_cm7.o
LPUART12_IRQHandler                               ./startup/startup_mimxrt1176_cm7.o
LPUART1_DriverIRQHandler                          ./drivers/fsl_lpuart.o
                                                  ./startup/startup_mimxrt1176_cm7.o
LPUART1_IRQHandler                                ./startup/startup_mimxrt1176_cm7.o
LPUART2_DriverIRQHandler                          ./drivers/fsl_lpuart.o
                                                  ./startup/startup_mimxrt1176_cm7.o
LPUART2_IRQHandler                                ./startup/startup_mimxrt1176_cm7.o
LPUART3_DriverIRQHandler                          ./drivers/fsl_lpuart.o
                                                  ./startup/startup_mimxrt1176_cm7.o
LPUART3_IRQHandler                                ./startup/startup_mimxrt1176_cm7.o
LPUART4_DriverIRQHandler                          ./drivers/fsl_lpuart.o
                                                  ./startup/startup_mimxrt1176_cm7.o
LPUART4_IRQHandler                                ./startup/startup_mimxrt1176_cm7.o
LPUART5_DriverIRQHandler                          ./drivers/fsl_lpuart.o
                                                  ./startup/startup_mimxrt1176_cm7.o
LPUART5_IRQHandler                                ./startup/startup_mimxrt1176_cm7.o
LPUART6_DriverIRQHandler                          ./drivers/fsl_lpuart.o
                                                  ./startup/startup_mimxrt1176_cm7.o
LPUART6_IRQHandler                                ./startup/startup_mimxrt1176_cm7.o
LPUART7_DriverIRQHandler                          ./drivers/fsl_lpuart.o
                                                  ./startup/startup_mimxrt1176_cm7.o
LPUART7_IRQHandler                                ./startup/startup_mimxrt1176_cm7.o
LPUART8_DriverIRQHandler                          ./drivers/fsl_lpuart.o
                                                  ./startup/startup_mimxrt1176_cm7.o
LPUART8_IRQHandler                                ./startup/startup_mimxrt1176_cm7.o
LPUART9_DriverIRQHandler                          ./drivers/fsl_lpuart.o
                                                  ./startup/startup_mimxrt1176_cm7.o
LPUART9_IRQHandler                                ./startup/startup_mimxrt1176_cm7.o
LPUART_ClearStatusFlags                           ./drivers/fsl_lpuart.o
LPUART_Deinit                                     ./drivers/fsl_lpuart.o
                                                  ./component/uart/fsl_adapter_lpuart.o
LPUART_DisableInterrupts                          ./drivers/fsl_lpuart.o
LPUART_Enable9bitMode                             ./drivers/fsl_lpuart.o
LPUART_EnableInterrupts                           ./drivers/fsl_lpuart.o
LPUART_GetDefaultConfig                           ./drivers/fsl_lpuart.o
                                                  ./component/uart/fsl_adapter_lpuart.o
LPUART_GetEnabledInterrupts                       ./drivers/fsl_lpuart.o
LPUART_GetInstance                                ./drivers/fsl_lpuart.o
LPUART_GetStatusFlags                             ./drivers/fsl_lpuart.o
LPUART_Init                                       ./drivers/fsl_lpuart.o
                                                  ./component/uart/fsl_adapter_lpuart.o
LPUART_ReadBlocking                               ./drivers/fsl_lpuart.o
                                                  ./component/uart/fsl_adapter_lpuart.o
LPUART_SendAddress                                ./drivers/fsl_lpuart.o
LPUART_SetBaudRate                                ./drivers/fsl_lpuart.o
LPUART_TransferAbortReceive                       ./drivers/fsl_lpuart.o
LPUART_TransferAbortSend                          ./drivers/fsl_lpuart.o
LPUART_TransferCreateHandle                       ./drivers/fsl_lpuart.o
LPUART_TransferGetReceiveCount                    ./drivers/fsl_lpuart.o
LPUART_TransferGetRxRingBufferLength              ./drivers/fsl_lpuart.o
LPUART_TransferGetSendCount                       ./drivers/fsl_lpuart.o
LPUART_TransferHandleErrorIRQ                     ./drivers/fsl_lpuart.o
LPUART_TransferHandleIRQ                          ./drivers/fsl_lpuart.o
LPUART_TransferReceiveNonBlocking                 ./drivers/fsl_lpuart.o
LPUART_TransferSendNonBlocking                    ./drivers/fsl_lpuart.o
LPUART_TransferStartRingBuffer                    ./drivers/fsl_lpuart.o
LPUART_TransferStopRingBuffer                     ./drivers/fsl_lpuart.o
LPUART_WriteBlocking                              ./drivers/fsl_lpuart.o
                                                  ./component/uart/fsl_adapter_lpuart.o
MECC1_FATAL_INT_DriverIRQHandler                  ./startup/startup_mimxrt1176_cm7.o
MECC1_FATAL_INT_IRQHandler                        ./startup/startup_mimxrt1176_cm7.o
MECC1_INT_DriverIRQHandler                        ./startup/startup_mimxrt1176_cm7.o
MECC1_INT_IRQHandler                              ./startup/startup_mimxrt1176_cm7.o
MECC2_FATAL_INT_DriverIRQHandler                  ./startup/startup_mimxrt1176_cm7.o
MECC2_FATAL_INT_IRQHandler                        ./startup/startup_mimxrt1176_cm7.o
MECC2_INT_DriverIRQHandler                        ./startup/startup_mimxrt1176_cm7.o
MECC2_INT_IRQHandler                              ./startup/startup_mimxrt1176_cm7.o
MIPI_CSI_DriverIRQHandler                         ./startup/startup_mimxrt1176_cm7.o
MIPI_CSI_IRQHandler                               ./startup/startup_mimxrt1176_cm7.o
MIPI_DSI_DriverIRQHandler                         ./startup/startup_mimxrt1176_cm7.o
MIPI_DSI_IRQHandler                               ./startup/startup_mimxrt1176_cm7.o
MSDK_EnableCpuCycleCounter                        ./drivers/fsl_common_arm.o
MSDK_GetCpuCycleCount                             ./drivers/fsl_common_arm.o
MUA_DriverIRQHandler                              ./startup/startup_mimxrt1176_cm7.o
MUA_IRQHandler                                    ./startup/startup_mimxrt1176_cm7.o
MemManage_Handler                                 ./startup/startup_mimxrt1176_cm7.o
NMI_Handler                                       ./startup/startup_mimxrt1176_cm7.o
OCOTP_READ_DONE_ERROR_DriverIRQHandler            ./startup/startup_mimxrt1176_cm7.o
OCOTP_READ_DONE_ERROR_IRQHandler                  ./startup/startup_mimxrt1176_cm7.o
OCOTP_READ_FUSE_ERROR_DriverIRQHandler            ./startup/startup_mimxrt1176_cm7.o
OCOTP_READ_FUSE_ERROR_IRQHandler                  ./startup/startup_mimxrt1176_cm7.o
PDM_ERROR_DriverIRQHandler                        ./startup/startup_mimxrt1176_cm7.o
PDM_ERROR_IRQHandler                              ./startup/startup_mimxrt1176_cm7.o
PDM_EVENT_DriverIRQHandler                        ./startup/startup_mimxrt1176_cm7.o
PDM_EVENT_IRQHandler                              ./startup/startup_mimxrt1176_cm7.o
PDM_HWVAD_ERROR_DriverIRQHandler                  ./startup/startup_mimxrt1176_cm7.o
PDM_HWVAD_ERROR_IRQHandler                        ./startup/startup_mimxrt1176_cm7.o
PDM_HWVAD_EVENT_DriverIRQHandler                  ./startup/startup_mimxrt1176_cm7.o
PDM_HWVAD_EVENT_IRQHandler                        ./startup/startup_mimxrt1176_cm7.o
PIT1_DriverIRQHandler                             ./startup/startup_mimxrt1176_cm7.o
PIT1_IRQHandler                                   ./startup/startup_mimxrt1176_cm7.o
PIT2_DriverIRQHandler                             ./startup/startup_mimxrt1176_cm7.o
PIT2_IRQHandler                                   ./startup/startup_mimxrt1176_cm7.o
PMU_DisableBandgapSelfBiasAfterPowerUp            ./drivers/fsl_pmu.o
PMU_EnableBandgapSelfBiasBeforePowerDown          ./drivers/fsl_pmu.o
PMU_EnableBodyBias                                ./drivers/fsl_pmu.o
                                                  ./board/clock_config.o
PMU_GPCEnableBodyBias                             ./drivers/fsl_pmu.o
PMU_GPCEnableBodyBiasStandbyMode                  ./drivers/fsl_pmu.o
PMU_GPCEnableLdo                                  ./drivers/fsl_pmu.o
PMU_GPCEnableLdoBypassMode                        ./drivers/fsl_pmu.o
PMU_GPCEnableLdoStandbyMode                       ./drivers/fsl_pmu.o
PMU_GPCEnableLdoTrackingMode                      ./drivers/fsl_pmu.o
PMU_GPCGetBodyBiasDefaultConfig                   ./drivers/fsl_pmu.o
PMU_GPCSetBodyBiasConfig                          ./drivers/fsl_pmu.o
PMU_GPCSetLdoOperateMode                          ./drivers/fsl_pmu.o
PMU_GPCSetLpsrDigLdoTargetVoltage                 ./drivers/fsl_pmu.o
PMU_GetSnvsDigLdoDefaultConfig                    ./drivers/fsl_pmu.o
PMU_GetWellBiasDefaultConfig                      ./drivers/fsl_pmu.o
PMU_SetBandgapControlMode                         ./drivers/fsl_pmu.o
PMU_SetBodyBiasControlMode                        ./drivers/fsl_pmu.o
PMU_SetLpsrAnaLdoControlMode                      ./drivers/fsl_pmu.o
PMU_SetLpsrDigLdoControlMode                      ./drivers/fsl_pmu.o
PMU_SetPllLdoControlMode                          ./drivers/fsl_pmu.o
PMU_SnvsDigLdoInit                                ./drivers/fsl_pmu.o
PMU_StaticBandgapInit                             ./drivers/fsl_pmu.o
PMU_StaticDisablePllLdo                           ./drivers/fsl_pmu.o
PMU_StaticEnableLpsrAnaLdoBypassMode              ./drivers/fsl_pmu.o
                                                  ./board/clock_config.o
PMU_StaticEnableLpsrDigLdoBypassMode              ./drivers/fsl_pmu.o
                                                  ./board/clock_config.o
PMU_StaticEnablePllLdo                            ./drivers/fsl_pmu.o
                                                  ./drivers/fsl_clock.o
PMU_StaticGetLpsrAnaLdoDefaultConfig              ./drivers/fsl_pmu.o
PMU_StaticGetLpsrDigLdoDefaultConfig              ./drivers/fsl_pmu.o
PMU_StaticLpsrAnaLdoDeinit                        ./drivers/fsl_pmu.o
PMU_StaticLpsrAnaLdoInit                          ./drivers/fsl_pmu.o
PMU_StaticLpsrDigLdoDeinit                        ./drivers/fsl_pmu.o
PMU_StaticLpsrDigLdoInit                          ./drivers/fsl_pmu.o
PMU_SwitchBandgapToGPCMode                        ./drivers/fsl_pmu.o
PMU_SwitchPllLdoToGPCMode                         ./drivers/fsl_pmu.o
PMU_WellBiasInit                                  ./drivers/fsl_pmu.o
PWM1_0_DriverIRQHandler                           ./startup/startup_mimxrt1176_cm7.o
PWM1_0_IRQHandler                                 ./startup/startup_mimxrt1176_cm7.o
PWM1_1_DriverIRQHandler                           ./startup/startup_mimxrt1176_cm7.o
PWM1_1_IRQHandler                                 ./startup/startup_mimxrt1176_cm7.o
PWM1_2_DriverIRQHandler                           ./startup/startup_mimxrt1176_cm7.o
PWM1_2_IRQHandler                                 ./startup/startup_mimxrt1176_cm7.o
PWM1_3_DriverIRQHandler                           ./startup/startup_mimxrt1176_cm7.o
PWM1_3_IRQHandler                                 ./startup/startup_mimxrt1176_cm7.o
PWM1_FAULT_DriverIRQHandler                       ./startup/startup_mimxrt1176_cm7.o
PWM1_FAULT_IRQHandler                             ./startup/startup_mimxrt1176_cm7.o
PWM2_0_DriverIRQHandler                           ./startup/startup_mimxrt1176_cm7.o
PWM2_0_IRQHandler                                 ./startup/startup_mimxrt1176_cm7.o
PWM2_1_DriverIRQHandler                           ./startup/startup_mimxrt1176_cm7.o
PWM2_1_IRQHandler                                 ./startup/startup_mimxrt1176_cm7.o
PWM2_2_DriverIRQHandler                           ./startup/startup_mimxrt1176_cm7.o
PWM2_2_IRQHandler                                 ./startup/startup_mimxrt1176_cm7.o
PWM2_3_DriverIRQHandler                           ./startup/startup_mimxrt1176_cm7.o
PWM2_3_IRQHandler                                 ./startup/startup_mimxrt1176_cm7.o
PWM2_FAULT_DriverIRQHandler                       ./startup/startup_mimxrt1176_cm7.o
PWM2_FAULT_IRQHandler                             ./startup/startup_mimxrt1176_cm7.o
PWM3_0_DriverIRQHandler                           ./startup/startup_mimxrt1176_cm7.o
PWM3_0_IRQHandler                                 ./startup/startup_mimxrt1176_cm7.o
PWM3_1_DriverIRQHandler                           ./startup/startup_mimxrt1176_cm7.o
PWM3_1_IRQHandler                                 ./startup/startup_mimxrt1176_cm7.o
PWM3_2_DriverIRQHandler                           ./startup/startup_mimxrt1176_cm7.o
PWM3_2_IRQHandler                                 ./startup/startup_mimxrt1176_cm7.o
PWM3_3_DriverIRQHandler                           ./startup/startup_mimxrt1176_cm7.o
PWM3_3_IRQHandler                                 ./startup/startup_mimxrt1176_cm7.o
PWM3_FAULT_DriverIRQHandler                       ./startup/startup_mimxrt1176_cm7.o
PWM3_FAULT_IRQHandler                             ./startup/startup_mimxrt1176_cm7.o
PWM4_0_DriverIRQHandler                           ./startup/startup_mimxrt1176_cm7.o
PWM4_0_IRQHandler                                 ./startup/startup_mimxrt1176_cm7.o
PWM4_1_DriverIRQHandler                           ./startup/startup_mimxrt1176_cm7.o
PWM4_1_IRQHandler                                 ./startup/startup_mimxrt1176_cm7.o
PWM4_2_DriverIRQHandler                           ./startup/startup_mimxrt1176_cm7.o
PWM4_2_IRQHandler                                 ./startup/startup_mimxrt1176_cm7.o
PWM4_3_DriverIRQHandler                           ./startup/startup_mimxrt1176_cm7.o
PWM4_3_IRQHandler                                 ./startup/startup_mimxrt1176_cm7.o
PWM4_FAULT_DriverIRQHandler                       ./startup/startup_mimxrt1176_cm7.o
PWM4_FAULT_IRQHandler                             ./startup/startup_mimxrt1176_cm7.o
PXP_DriverIRQHandler                              ./startup/startup_mimxrt1176_cm7.o
PXP_IRQHandler                                    ./startup/startup_mimxrt1176_cm7.o
PendSV_Handler                                    ./startup/startup_mimxrt1176_cm7.o
RDC_DriverIRQHandler                              ./startup/startup_mimxrt1176_cm7.o
RDC_IRQHandler                                    ./startup/startup_mimxrt1176_cm7.o
RTWDOG3_DriverIRQHandler                          ./startup/startup_mimxrt1176_cm7.o
RTWDOG3_IRQHandler                                ./startup/startup_mimxrt1176_cm7.o
Reserved110_DriverIRQHandler                      ./startup/startup_mimxrt1176_cm7.o
Reserved110_IRQHandler                            ./startup/startup_mimxrt1176_cm7.o
Reserved166_DriverIRQHandler                      ./startup/startup_mimxrt1176_cm7.o
Reserved166_IRQHandler                            ./startup/startup_mimxrt1176_cm7.o
Reserved167_DriverIRQHandler                      ./startup/startup_mimxrt1176_cm7.o
Reserved167_IRQHandler                            ./startup/startup_mimxrt1176_cm7.o
Reserved168_DriverIRQHandler                      ./startup/startup_mimxrt1176_cm7.o
Reserved168_IRQHandler                            ./startup/startup_mimxrt1176_cm7.o
Reserved169_DriverIRQHandler                      ./startup/startup_mimxrt1176_cm7.o
Reserved169_IRQHandler                            ./startup/startup_mimxrt1176_cm7.o
Reserved170_DriverIRQHandler                      ./startup/startup_mimxrt1176_cm7.o
Reserved170_IRQHandler                            ./startup/startup_mimxrt1176_cm7.o
Reserved177_DriverIRQHandler                      ./startup/startup_mimxrt1176_cm7.o
Reserved177_IRQHandler                            ./startup/startup_mimxrt1176_cm7.o
Reserved178_DriverIRQHandler                      ./startup/startup_mimxrt1176_cm7.o
Reserved178_IRQHandler                            ./startup/startup_mimxrt1176_cm7.o
Reserved179_DriverIRQHandler                      ./startup/startup_mimxrt1176_cm7.o
Reserved179_IRQHandler                            ./startup/startup_mimxrt1176_cm7.o
Reserved180_DriverIRQHandler                      ./startup/startup_mimxrt1176_cm7.o
Reserved180_IRQHandler                            ./startup/startup_mimxrt1176_cm7.o
Reserved185_DriverIRQHandler                      ./startup/startup_mimxrt1176_cm7.o
Reserved185_IRQHandler                            ./startup/startup_mimxrt1176_cm7.o
Reserved186_DriverIRQHandler                      ./startup/startup_mimxrt1176_cm7.o
Reserved186_IRQHandler                            ./startup/startup_mimxrt1176_cm7.o
Reserved208_DriverIRQHandler                      ./startup/startup_mimxrt1176_cm7.o
Reserved208_IRQHandler                            ./startup/startup_mimxrt1176_cm7.o
Reserved209_DriverIRQHandler                      ./startup/startup_mimxrt1176_cm7.o
Reserved209_IRQHandler                            ./startup/startup_mimxrt1176_cm7.o
Reserved210_DriverIRQHandler                      ./startup/startup_mimxrt1176_cm7.o
Reserved210_IRQHandler                            ./startup/startup_mimxrt1176_cm7.o
Reserved211_DriverIRQHandler                      ./startup/startup_mimxrt1176_cm7.o
Reserved211_IRQHandler                            ./startup/startup_mimxrt1176_cm7.o
Reserved212_DriverIRQHandler                      ./startup/startup_mimxrt1176_cm7.o
Reserved212_IRQHandler                            ./startup/startup_mimxrt1176_cm7.o
Reserved213_DriverIRQHandler                      ./startup/startup_mimxrt1176_cm7.o
Reserved213_IRQHandler                            ./startup/startup_mimxrt1176_cm7.o
Reserved214_DriverIRQHandler                      ./startup/startup_mimxrt1176_cm7.o
Reserved214_IRQHandler                            ./startup/startup_mimxrt1176_cm7.o
Reserved215_DriverIRQHandler                      ./startup/startup_mimxrt1176_cm7.o
Reserved215_IRQHandler                            ./startup/startup_mimxrt1176_cm7.o
Reserved68_DriverIRQHandler                       ./startup/startup_mimxrt1176_cm7.o
Reserved68_IRQHandler                             ./startup/startup_mimxrt1176_cm7.o
ResetISR                                          ./startup/startup_mimxrt1176_cm7.o
                                                  ./xip/fsl_flexspi_nor_boot.o
SAI1_DriverIRQHandler                             ./startup/startup_mimxrt1176_cm7.o
SAI1_IRQHandler                                   ./startup/startup_mimxrt1176_cm7.o
SAI2_DriverIRQHandler                             ./startup/startup_mimxrt1176_cm7.o
SAI2_IRQHandler                                   ./startup/startup_mimxrt1176_cm7.o
SAI3_RX_DriverIRQHandler                          ./startup/startup_mimxrt1176_cm7.o
SAI3_RX_IRQHandler                                ./startup/startup_mimxrt1176_cm7.o
SAI3_TX_DriverIRQHandler                          ./startup/startup_mimxrt1176_cm7.o
SAI3_TX_IRQHandler                                ./startup/startup_mimxrt1176_cm7.o
SAI4_RX_DriverIRQHandler                          ./startup/startup_mimxrt1176_cm7.o
SAI4_RX_IRQHandler                                ./startup/startup_mimxrt1176_cm7.o
SAI4_TX_DriverIRQHandler                          ./startup/startup_mimxrt1176_cm7.o
SAI4_TX_IRQHandler                                ./startup/startup_mimxrt1176_cm7.o
SDK_DelayAtLeastUs                                ./drivers/fsl_common_arm.o
                                                  ./drivers/fsl_pmu.o
                                                  ./drivers/fsl_clock.o
SDK_Free                                          ./drivers/fsl_common.o
SDK_Malloc                                        ./drivers/fsl_common.o
SEMA4_CP0_DriverIRQHandler                        ./startup/startup_mimxrt1176_cm7.o
SEMA4_CP0_IRQHandler                              ./startup/startup_mimxrt1176_cm7.o
SEMA4_CP1_DriverIRQHandler                        ./startup/startup_mimxrt1176_cm7.o
SEMA4_CP1_IRQHandler                              ./startup/startup_mimxrt1176_cm7.o
SEMC_DriverIRQHandler                             ./startup/startup_mimxrt1176_cm7.o
SEMC_IRQHandler                                   ./startup/startup_mimxrt1176_cm7.o
SNVS_HP_NON_TZ_DriverIRQHandler                   ./startup/startup_mimxrt1176_cm7.o
SNVS_HP_NON_TZ_IRQHandler                         ./startup/startup_mimxrt1176_cm7.o
SNVS_HP_TZ_DriverIRQHandler                       ./startup/startup_mimxrt1176_cm7.o
SNVS_HP_TZ_IRQHandler                             ./startup/startup_mimxrt1176_cm7.o
SNVS_PULSE_EVENT_DriverIRQHandler                 ./startup/startup_mimxrt1176_cm7.o
SNVS_PULSE_EVENT_IRQHandler                       ./startup/startup_mimxrt1176_cm7.o
SPDIF_DriverIRQHandler                            ./startup/startup_mimxrt1176_cm7.o
SPDIF_IRQHandler                                  ./startup/startup_mimxrt1176_cm7.o
SVC_Handler                                       ./startup/startup_mimxrt1176_cm7.o
SerialManager_CloseReadHandle                     ./component/serial_manager/fsl_component_serial_manager.o
                                                  ./utilities/fsl_debug_console.o
SerialManager_CloseWriteHandle                    ./component/serial_manager/fsl_component_serial_manager.o
                                                  ./utilities/fsl_debug_console.o
SerialManager_Deinit                              ./component/serial_manager/fsl_component_serial_manager.o
                                                  ./utilities/fsl_debug_console.o
SerialManager_EnterLowpower                       ./component/serial_manager/fsl_component_serial_manager.o
                                                  ./utilities/fsl_debug_console.o
SerialManager_ExitLowpower                        ./component/serial_manager/fsl_component_serial_manager.o
                                                  ./utilities/fsl_debug_console.o
SerialManager_Init                                ./component/serial_manager/fsl_component_serial_manager.o
                                                  ./utilities/fsl_debug_console.o
SerialManager_OpenReadHandle                      ./component/serial_manager/fsl_component_serial_manager.o
                                                  ./utilities/fsl_debug_console.o
SerialManager_OpenWriteHandle                     ./component/serial_manager/fsl_component_serial_manager.o
                                                  ./utilities/fsl_debug_console.o
SerialManager_ReadBlocking                        ./component/serial_manager/fsl_component_serial_manager.o
                                                  ./utilities/fsl_debug_console.o
SerialManager_SetLowpowerCriticalCb               ./component/serial_manager/fsl_component_serial_manager.o
SerialManager_WriteBlocking                       ./component/serial_manager/fsl_component_serial_manager.o
                                                  ./utilities/fsl_debug_console.o
Serial_UartDeinit                                 ./component/serial_manager/fsl_component_serial_port_uart.o
                                                  ./component/serial_manager/fsl_component_serial_manager.o
Serial_UartEnterLowpower                          ./component/serial_manager/fsl_component_serial_port_uart.o
                                                  ./component/serial_manager/fsl_component_serial_manager.o
Serial_UartExitLowpower                           ./component/serial_manager/fsl_component_serial_port_uart.o
                                                  ./component/serial_manager/fsl_component_serial_manager.o
Serial_UartInit                                   ./component/serial_manager/fsl_component_serial_port_uart.o
                                                  ./component/serial_manager/fsl_component_serial_manager.o
Serial_UartRead                                   ./component/serial_manager/fsl_component_serial_port_uart.o
                                                  ./component/serial_manager/fsl_component_serial_manager.o
Serial_UartWrite                                  ./component/serial_manager/fsl_component_serial_port_uart.o
                                                  ./component/serial_manager/fsl_component_serial_manager.o
StrFormatPrintf                                   ./utilities/fsl_str.o
                                                  ./utilities/fsl_debug_console.o
StrFormatScanf                                    ./utilities/fsl_str.o
                                                  ./utilities/fsl_debug_console.o
SysTick_Handler                                   ./startup/startup_mimxrt1176_cm7.o
SystemCoreClock                                   ./device/system_MIMXRT1176_cm7.o
                                                  ./board/clock_config.o
SystemCoreClockUpdate                             ./device/system_MIMXRT1176_cm7.o
SystemInit                                        ./device/system_MIMXRT1176_cm7.o
                                                  ./startup/startup_mimxrt1176_cm7.o
SystemInitHook                                    ./device/system_MIMXRT1176_cm7.o
TMPSNS_INT_DriverIRQHandler                       ./startup/startup_mimxrt1176_cm7.o
TMPSNS_INT_IRQHandler                             ./startup/startup_mimxrt1176_cm7.o
TMPSNS_LOW_HIGH_DriverIRQHandler                  ./startup/startup_mimxrt1176_cm7.o
TMPSNS_LOW_HIGH_IRQHandler                        ./startup/startup_mimxrt1176_cm7.o
TMPSNS_PANIC_DriverIRQHandler                     ./startup/startup_mimxrt1176_cm7.o
TMPSNS_PANIC_IRQHandler                           ./startup/startup_mimxrt1176_cm7.o
TMR1_DriverIRQHandler                             ./startup/startup_mimxrt1176_cm7.o
TMR1_IRQHandler                                   ./startup/startup_mimxrt1176_cm7.o
TMR2_DriverIRQHandler                             ./startup/startup_mimxrt1176_cm7.o
TMR2_IRQHandler                                   ./startup/startup_mimxrt1176_cm7.o
TMR3_DriverIRQHandler                             ./startup/startup_mimxrt1176_cm7.o
TMR3_IRQHandler                                   ./startup/startup_mimxrt1176_cm7.o
TMR4_DriverIRQHandler                             ./startup/startup_mimxrt1176_cm7.o
TMR4_IRQHandler                                   ./startup/startup_mimxrt1176_cm7.o
USBPHY1_DriverIRQHandler                          ./startup/startup_mimxrt1176_cm7.o
USBPHY1_IRQHandler                                ./startup/startup_mimxrt1176_cm7.o
USBPHY2_DriverIRQHandler                          ./startup/startup_mimxrt1176_cm7.o
USBPHY2_IRQHandler                                ./startup/startup_mimxrt1176_cm7.o
USB_OTG1_DriverIRQHandler                         ./startup/startup_mimxrt1176_cm7.o
USB_OTG1_IRQHandler                               ./startup/startup_mimxrt1176_cm7.o
USB_OTG2_DriverIRQHandler                         ./startup/startup_mimxrt1176_cm7.o
USB_OTG2_IRQHandler                               ./startup/startup_mimxrt1176_cm7.o
USDHC1_DriverIRQHandler                           ./startup/startup_mimxrt1176_cm7.o
USDHC1_IRQHandler                                 ./startup/startup_mimxrt1176_cm7.o
USDHC2_DriverIRQHandler                           ./startup/startup_mimxrt1176_cm7.o
USDHC2_IRQHandler                                 ./startup/startup_mimxrt1176_cm7.o
UsageFault_Handler                                ./startup/startup_mimxrt1176_cm7.o
WDOG1_DriverIRQHandler                            ./startup/startup_mimxrt1176_cm7.o
WDOG1_IRQHandler                                  ./startup/startup_mimxrt1176_cm7.o
WDOG2_DriverIRQHandler                            ./startup/startup_mimxrt1176_cm7.o
WDOG2_IRQHandler                                  ./startup/startup_mimxrt1176_cm7.o
XBAR1_IRQ_0_1_DriverIRQHandler                    ./startup/startup_mimxrt1176_cm7.o
XBAR1_IRQ_0_1_IRQHandler                          ./startup/startup_mimxrt1176_cm7.o
XBAR1_IRQ_2_3_DriverIRQHandler                    ./startup/startup_mimxrt1176_cm7.o
XBAR1_IRQ_2_3_IRQHandler                          ./startup/startup_mimxrt1176_cm7.o
XECC_FLEXSPI1_FATAL_INT_DriverIRQHandler          ./startup/startup_mimxrt1176_cm7.o
XECC_FLEXSPI1_FATAL_INT_IRQHandler                ./startup/startup_mimxrt1176_cm7.o
XECC_FLEXSPI1_INT_DriverIRQHandler                ./startup/startup_mimxrt1176_cm7.o
XECC_FLEXSPI1_INT_IRQHandler                      ./startup/startup_mimxrt1176_cm7.o
XECC_FLEXSPI2_FATAL_INT_DriverIRQHandler          ./startup/startup_mimxrt1176_cm7.o
XECC_FLEXSPI2_FATAL_INT_IRQHandler                ./startup/startup_mimxrt1176_cm7.o
XECC_FLEXSPI2_INT_DriverIRQHandler                ./startup/startup_mimxrt1176_cm7.o
XECC_FLEXSPI2_INT_IRQHandler                      ./startup/startup_mimxrt1176_cm7.o
XECC_SEMC_FATAL_INT_DriverIRQHandler              ./startup/startup_mimxrt1176_cm7.o
XECC_SEMC_FATAL_INT_IRQHandler                    ./startup/startup_mimxrt1176_cm7.o
XECC_SEMC_INT_DriverIRQHandler                    ./startup/startup_mimxrt1176_cm7.o
XECC_SEMC_INT_IRQHandler                          ./startup/startup_mimxrt1176_cm7.o
_Csys_alloc                                       /Applications/MCUXpressoIDE_11.7.0_9198/ide/plugins/com.nxp.mcuxpresso.tools.macosx_11.7.0.202209140929/tools/bin/../lib/gcc/arm-none-eabi/10.3.1/../../../../arm-none-eabi/lib/thumb/v7e-m+fp/hard/libcr_c.a(alloc.o)
                                                  /Applications/MCUXpressoIDE_11.7.0_9198/ide/plugins/com.nxp.mcuxpresso.tools.macosx_11.7.0.202209140929/tools/bin/../lib/gcc/arm-none-eabi/10.3.1/../../../../arm-none-eabi/lib/thumb/v7e-m+fp/hard/libcr_c.a(_deferredlazyseek.o)
                                                  /Applications/MCUXpressoIDE_11.7.0_9198/ide/plugins/com.nxp.mcuxpresso.tools.macosx_11.7.0.202209140929/tools/bin/../lib/gcc/arm-none-eabi/10.3.1/../../../../arm-none-eabi/lib/thumb/v7e-m+fp/hard/libcr_c.a(__fillbuf.o)
_Csys_read_                                       /Applications/MCUXpressoIDE_11.7.0_9198/ide/plugins/com.nxp.mcuxpresso.tools.macosx_11.7.0.202209140929/tools/bin/../lib/gcc/arm-none-eabi/10.3.1/../../../../arm-none-eabi/lib/thumb/v7e-m+fp/hard/libcr_c.a(__fillbuf.o)
_Cwritebuf                                        /Applications/MCUXpressoIDE_11.7.0_9198/ide/plugins/com.nxp.mcuxpresso.tools.macosx_11.7.0.202209140929/tools/bin/../lib/gcc/arm-none-eabi/10.3.1/../../../../arm-none-eabi/lib/thumb/v7e-m+fp/hard/libcr_c.a(_writebuf.o)
                                                  /Applications/MCUXpressoIDE_11.7.0_9198/ide/plugins/com.nxp.mcuxpresso.tools.macosx_11.7.0.202209140929/tools/bin/../lib/gcc/arm-none-eabi/10.3.1/../../../../arm-none-eabi/lib/thumb/v7e-m+fp/hard/libcr_c.a(_fflush.o)
                                                  /Applications/MCUXpressoIDE_11.7.0_9198/ide/plugins/com.nxp.mcuxpresso.tools.macosx_11.7.0.202209140929/tools/bin/../lib/gcc/arm-none-eabi/10.3.1/../../../../arm-none-eabi/lib/thumb/v7e-m+fp/hard/libcr_c.a(_deferredlazyseek.o)
__Ciob                                            /Applications/MCUXpressoIDE_11.7.0_9198/ide/plugins/com.nxp.mcuxpresso.tools.macosx_11.7.0.202209140929/tools/bin/../lib/gcc/arm-none-eabi/10.3.1/../../../../arm-none-eabi/lib/thumb/v7e-m+fp/hard/libcr_nohost_nf.a(__ciob.o)
                                                  /Applications/MCUXpressoIDE_11.7.0_9198/ide/plugins/com.nxp.mcuxpresso.tools.macosx_11.7.0.202209140929/tools/bin/../lib/gcc/arm-none-eabi/10.3.1/../../../../arm-none-eabi/lib/thumb/v7e-m+fp/hard/libcr_c.a(fflush.o)
                                                  /Applications/MCUXpressoIDE_11.7.0_9198/ide/plugins/com.nxp.mcuxpresso.tools.macosx_11.7.0.202209140929/tools/bin/../lib/gcc/arm-none-eabi/10.3.1/../../../../arm-none-eabi/lib/thumb/v7e-m+fp/hard/libcr_c.a(scanf.o)
                                                  /Applications/MCUXpressoIDE_11.7.0_9198/ide/plugins/com.nxp.mcuxpresso.tools.macosx_11.7.0.202209140929/tools/bin/../lib/gcc/arm-none-eabi/10.3.1/../../../../arm-none-eabi/lib/thumb/v7e-m+fp/hard/libcr_c.a(initio.o)
__Vectors                                         ./startup/startup_mimxrt1176_cm7.o
__aeabi_cdcmpeq                                   /Applications/MCUXpressoIDE_11.7.0_9198/ide/plugins/com.nxp.mcuxpresso.tools.macosx_11.7.0.202209140929/tools/bin/../lib/gcc/arm-none-eabi/10.3.1/thumb/v7e-m+fp/hard/libcr_eabihelpers.a(double.o)
__aeabi_cdcmple                                   /Applications/MCUXpressoIDE_11.7.0_9198/ide/plugins/com.nxp.mcuxpresso.tools.macosx_11.7.0.202209140929/tools/bin/../lib/gcc/arm-none-eabi/10.3.1/thumb/v7e-m+fp/hard/libcr_eabihelpers.a(double.o)
__aeabi_cdrcmple                                  /Applications/MCUXpressoIDE_11.7.0_9198/ide/plugins/com.nxp.mcuxpresso.tools.macosx_11.7.0.202209140929/tools/bin/../lib/gcc/arm-none-eabi/10.3.1/thumb/v7e-m+fp/hard/libcr_eabihelpers.a(double.o)
__aeabi_d2f                                       /Applications/MCUXpressoIDE_11.7.0_9198/ide/plugins/com.nxp.mcuxpresso.tools.macosx_11.7.0.202209140929/tools/bin/../lib/gcc/arm-none-eabi/10.3.1/thumb/v7e-m+fp/hard/libcr_eabihelpers.a(double.o)
                                                  /Applications/MCUXpressoIDE_11.7.0_9198/ide/plugins/com.nxp.mcuxpresso.tools.macosx_11.7.0.202209140929/tools/bin/../lib/gcc/arm-none-eabi/10.3.1/../../../../arm-none-eabi/lib/thumb/v7e-m+fp/hard/libcr_c.a(scanf.o)
__aeabi_d2iz                                      /Applications/MCUXpressoIDE_11.7.0_9198/ide/plugins/com.nxp.mcuxpresso.tools.macosx_11.7.0.202209140929/tools/bin/../lib/gcc/arm-none-eabi/10.3.1/thumb/v7e-m+fp/hard/libcr_eabihelpers.a(double.o)
__aeabi_d2lz                                      /Applications/MCUXpressoIDE_11.7.0_9198/ide/plugins/com.nxp.mcuxpresso.tools.macosx_11.7.0.202209140929/tools/bin/../lib/gcc/arm-none-eabi/10.3.1/thumb/v7e-m+fp/hard/libcr_eabihelpers.a(double.o)
__aeabi_d2uiz                                     /Applications/MCUXpressoIDE_11.7.0_9198/ide/plugins/com.nxp.mcuxpresso.tools.macosx_11.7.0.202209140929/tools/bin/../lib/gcc/arm-none-eabi/10.3.1/thumb/v7e-m+fp/hard/libcr_eabihelpers.a(double.o)
                                                  ./drivers/fsl_clock.o
__aeabi_d2ulz                                     /Applications/MCUXpressoIDE_11.7.0_9198/ide/plugins/com.nxp.mcuxpresso.tools.macosx_11.7.0.202209140929/tools/bin/../lib/gcc/arm-none-eabi/10.3.1/thumb/v7e-m+fp/hard/libcr_eabihelpers.a(double.o)
__aeabi_dadd                                      /Applications/MCUXpressoIDE_11.7.0_9198/ide/plugins/com.nxp.mcuxpresso.tools.macosx_11.7.0.202209140929/tools/bin/../lib/gcc/arm-none-eabi/10.3.1/thumb/v7e-m+fp/hard/libcr_eabihelpers.a(double.o)
                                                  /Applications/MCUXpressoIDE_11.7.0_9198/ide/plugins/com.nxp.mcuxpresso.tools.macosx_11.7.0.202209140929/tools/bin/../lib/gcc/arm-none-eabi/10.3.1/../../../../arm-none-eabi/lib/thumb/v7e-m+fp/hard/libcr_c.a(scanf.o)
                                                  ./drivers/fsl_clock.o
__aeabi_dcmpeq                                    /Applications/MCUXpressoIDE_11.7.0_9198/ide/plugins/com.nxp.mcuxpresso.tools.macosx_11.7.0.202209140929/tools/bin/../lib/gcc/arm-none-eabi/10.3.1/thumb/v7e-m+fp/hard/libcr_eabihelpers.a(double.o)
                                                  /Applications/MCUXpressoIDE_11.7.0_9198/ide/plugins/com.nxp.mcuxpresso.tools.macosx_11.7.0.202209140929/tools/bin/../lib/gcc/arm-none-eabi/10.3.1/../../../../arm-none-eabi/lib/thumb/v7e-m+fp/hard/libcr_c.a(_ldexpl.o)
                                                  /Applications/MCUXpressoIDE_11.7.0_9198/ide/plugins/com.nxp.mcuxpresso.tools.macosx_11.7.0.202209140929/tools/bin/../lib/gcc/arm-none-eabi/10.3.1/../../../../arm-none-eabi/lib/thumb/v7e-m+fp/hard/libcr_c.a(_frexpl.o)
                                                  /Applications/MCUXpressoIDE_11.7.0_9198/ide/plugins/com.nxp.mcuxpresso.tools.macosx_11.7.0.202209140929/tools/bin/../lib/gcc/arm-none-eabi/10.3.1/../../../../arm-none-eabi/lib/thumb/v7e-m+fp/hard/libcr_c.a(scanf.o)
__aeabi_dcmpge                                    /Applications/MCUXpressoIDE_11.7.0_9198/ide/plugins/com.nxp.mcuxpresso.tools.macosx_11.7.0.202209140929/tools/bin/../lib/gcc/arm-none-eabi/10.3.1/thumb/v7e-m+fp/hard/libcr_eabihelpers.a(double.o)
                                                  /Applications/MCUXpressoIDE_11.7.0_9198/ide/plugins/com.nxp.mcuxpresso.tools.macosx_11.7.0.202209140929/tools/bin/../lib/gcc/arm-none-eabi/10.3.1/../../../../arm-none-eabi/lib/thumb/v7e-m+fp/hard/libcr_c.a(scanf.o)
__aeabi_dcmpgt                                    /Applications/MCUXpressoIDE_11.7.0_9198/ide/plugins/com.nxp.mcuxpresso.tools.macosx_11.7.0.202209140929/tools/bin/../lib/gcc/arm-none-eabi/10.3.1/thumb/v7e-m+fp/hard/libcr_eabihelpers.a(double.o)
__aeabi_dcmple                                    /Applications/MCUXpressoIDE_11.7.0_9198/ide/plugins/com.nxp.mcuxpresso.tools.macosx_11.7.0.202209140929/tools/bin/../lib/gcc/arm-none-eabi/10.3.1/thumb/v7e-m+fp/hard/libcr_eabihelpers.a(double.o)
__aeabi_dcmplt                                    /Applications/MCUXpressoIDE_11.7.0_9198/ide/plugins/com.nxp.mcuxpresso.tools.macosx_11.7.0.202209140929/tools/bin/../lib/gcc/arm-none-eabi/10.3.1/thumb/v7e-m+fp/hard/libcr_eabihelpers.a(double.o)
__aeabi_dcmpun                                    /Applications/MCUXpressoIDE_11.7.0_9198/ide/plugins/com.nxp.mcuxpresso.tools.macosx_11.7.0.202209140929/tools/bin/../lib/gcc/arm-none-eabi/10.3.1/thumb/v7e-m+fp/hard/libcr_eabihelpers.a(double.o)
__aeabi_ddiv                                      /Applications/MCUXpressoIDE_11.7.0_9198/ide/plugins/com.nxp.mcuxpresso.tools.macosx_11.7.0.202209140929/tools/bin/../lib/gcc/arm-none-eabi/10.3.1/thumb/v7e-m+fp/hard/libcr_eabihelpers.a(double.o)
                                                  /Applications/MCUXpressoIDE_11.7.0_9198/ide/plugins/com.nxp.mcuxpresso.tools.macosx_11.7.0.202209140929/tools/bin/../lib/gcc/arm-none-eabi/10.3.1/../../../../arm-none-eabi/lib/thumb/v7e-m+fp/hard/libcr_c.a(scanf.o)
                                                  ./drivers/fsl_clock.o
__aeabi_dmul                                      /Applications/MCUXpressoIDE_11.7.0_9198/ide/plugins/com.nxp.mcuxpresso.tools.macosx_11.7.0.202209140929/tools/bin/../lib/gcc/arm-none-eabi/10.3.1/thumb/v7e-m+fp/hard/libcr_eabihelpers.a(double.o)
                                                  /Applications/MCUXpressoIDE_11.7.0_9198/ide/plugins/com.nxp.mcuxpresso.tools.macosx_11.7.0.202209140929/tools/bin/../lib/gcc/arm-none-eabi/10.3.1/../../../../arm-none-eabi/lib/thumb/v7e-m+fp/hard/libcr_c.a(scanf.o)
                                                  ./drivers/fsl_clock.o
__aeabi_dneg                                      /Applications/MCUXpressoIDE_11.7.0_9198/ide/plugins/com.nxp.mcuxpresso.tools.macosx_11.7.0.202209140929/tools/bin/../lib/gcc/arm-none-eabi/10.3.1/thumb/v7e-m+fp/hard/libcr_eabihelpers.a(double.o)
__aeabi_drsub                                     /Applications/MCUXpressoIDE_11.7.0_9198/ide/plugins/com.nxp.mcuxpresso.tools.macosx_11.7.0.202209140929/tools/bin/../lib/gcc/arm-none-eabi/10.3.1/thumb/v7e-m+fp/hard/libcr_eabihelpers.a(double.o)
__aeabi_dsub                                      /Applications/MCUXpressoIDE_11.7.0_9198/ide/plugins/com.nxp.mcuxpresso.tools.macosx_11.7.0.202209140929/tools/bin/../lib/gcc/arm-none-eabi/10.3.1/thumb/v7e-m+fp/hard/libcr_eabihelpers.a(double.o)
                                                  /Applications/MCUXpressoIDE_11.7.0_9198/ide/plugins/com.nxp.mcuxpresso.tools.macosx_11.7.0.202209140929/tools/bin/../lib/gcc/arm-none-eabi/10.3.1/../../../../arm-none-eabi/lib/thumb/v7e-m+fp/hard/libcr_c.a(scanf.o)
__aeabi_i2d                                       /Applications/MCUXpressoIDE_11.7.0_9198/ide/plugins/com.nxp.mcuxpresso.tools.macosx_11.7.0.202209140929/tools/bin/../lib/gcc/arm-none-eabi/10.3.1/thumb/v7e-m+fp/hard/libcr_eabihelpers.a(double.o)
                                                  /Applications/MCUXpressoIDE_11.7.0_9198/ide/plugins/com.nxp.mcuxpresso.tools.macosx_11.7.0.202209140929/tools/bin/../lib/gcc/arm-none-eabi/10.3.1/../../../../arm-none-eabi/lib/thumb/v7e-m+fp/hard/libcr_c.a(scanf.o)
__aeabi_idiv0                                     /Applications/MCUXpressoIDE_11.7.0_9198/ide/plugins/com.nxp.mcuxpresso.tools.macosx_11.7.0.202209140929/tools/bin/../lib/gcc/arm-none-eabi/10.3.1/thumb/v7e-m+fp/hard/libcr_eabihelpers.a(division_idiv0.o)
                                                  /Applications/MCUXpressoIDE_11.7.0_9198/ide/plugins/com.nxp.mcuxpresso.tools.macosx_11.7.0.202209140929/tools/bin/../lib/gcc/arm-none-eabi/10.3.1/thumb/v7e-m+fp/hard/libcr_eabihelpers.a(division_64.o)
__aeabi_l2d                                       /Applications/MCUXpressoIDE_11.7.0_9198/ide/plugins/com.nxp.mcuxpresso.tools.macosx_11.7.0.202209140929/tools/bin/../lib/gcc/arm-none-eabi/10.3.1/thumb/v7e-m+fp/hard/libcr_eabihelpers.a(double.o)
__aeabi_ldivmod                                   /Applications/MCUXpressoIDE_11.7.0_9198/ide/plugins/com.nxp.mcuxpresso.tools.macosx_11.7.0.202209140929/tools/bin/../lib/gcc/arm-none-eabi/10.3.1/thumb/v7e-m+fp/hard/libcr_eabihelpers.a(division_64.o)
__aeabi_lowlevel_memset                           /Applications/MCUXpressoIDE_11.7.0_9198/ide/plugins/com.nxp.mcuxpresso.tools.macosx_11.7.0.202209140929/tools/bin/../lib/gcc/arm-none-eabi/10.3.1/thumb/v7e-m+fp/hard/libcr_eabihelpers.a(memcpy.o)
                                                  /Applications/MCUXpressoIDE_11.7.0_9198/ide/plugins/com.nxp.mcuxpresso.tools.macosx_11.7.0.202209140929/tools/bin/../lib/gcc/arm-none-eabi/10.3.1/../../../../arm-none-eabi/lib/thumb/v7e-m+fp/hard/libcr_c.a(memset.o)
__aeabi_memclr                                    /Applications/MCUXpressoIDE_11.7.0_9198/ide/plugins/com.nxp.mcuxpresso.tools.macosx_11.7.0.202209140929/tools/bin/../lib/gcc/arm-none-eabi/10.3.1/thumb/v7e-m+fp/hard/libcr_eabihelpers.a(memcpy.o)
__aeabi_memclr4                                   /Applications/MCUXpressoIDE_11.7.0_9198/ide/plugins/com.nxp.mcuxpresso.tools.macosx_11.7.0.202209140929/tools/bin/../lib/gcc/arm-none-eabi/10.3.1/thumb/v7e-m+fp/hard/libcr_eabihelpers.a(memcpy.o)
__aeabi_memclr8                                   /Applications/MCUXpressoIDE_11.7.0_9198/ide/plugins/com.nxp.mcuxpresso.tools.macosx_11.7.0.202209140929/tools/bin/../lib/gcc/arm-none-eabi/10.3.1/thumb/v7e-m+fp/hard/libcr_eabihelpers.a(memcpy.o)
__aeabi_memcpy                                    /Applications/MCUXpressoIDE_11.7.0_9198/ide/plugins/com.nxp.mcuxpresso.tools.macosx_11.7.0.202209140929/tools/bin/../lib/gcc/arm-none-eabi/10.3.1/thumb/v7e-m+fp/hard/libcr_eabihelpers.a(memcpy.o)
                                                  /Applications/MCUXpressoIDE_11.7.0_9198/ide/plugins/com.nxp.mcuxpresso.tools.macosx_11.7.0.202209140929/tools/bin/../lib/gcc/arm-none-eabi/10.3.1/../../../../arm-none-eabi/lib/thumb/v7e-m+fp/hard/libcr_c.a(memcpy.o)
__aeabi_memcpy4                                   /Applications/MCUXpressoIDE_11.7.0_9198/ide/plugins/com.nxp.mcuxpresso.tools.macosx_11.7.0.202209140929/tools/bin/../lib/gcc/arm-none-eabi/10.3.1/thumb/v7e-m+fp/hard/libcr_eabihelpers.a(memcpy.o)
__aeabi_memcpy8                                   /Applications/MCUXpressoIDE_11.7.0_9198/ide/plugins/com.nxp.mcuxpresso.tools.macosx_11.7.0.202209140929/tools/bin/../lib/gcc/arm-none-eabi/10.3.1/thumb/v7e-m+fp/hard/libcr_eabihelpers.a(memcpy.o)
__aeabi_memmove                                   /Applications/MCUXpressoIDE_11.7.0_9198/ide/plugins/com.nxp.mcuxpresso.tools.macosx_11.7.0.202209140929/tools/bin/../lib/gcc/arm-none-eabi/10.3.1/thumb/v7e-m+fp/hard/libcr_eabihelpers.a(memcpy.o)
__aeabi_memmove4                                  /Applications/MCUXpressoIDE_11.7.0_9198/ide/plugins/com.nxp.mcuxpresso.tools.macosx_11.7.0.202209140929/tools/bin/../lib/gcc/arm-none-eabi/10.3.1/thumb/v7e-m+fp/hard/libcr_eabihelpers.a(memcpy.o)
__aeabi_memmove8                                  /Applications/MCUXpressoIDE_11.7.0_9198/ide/plugins/com.nxp.mcuxpresso.tools.macosx_11.7.0.202209140929/tools/bin/../lib/gcc/arm-none-eabi/10.3.1/thumb/v7e-m+fp/hard/libcr_eabihelpers.a(memcpy.o)
__aeabi_memset                                    /Applications/MCUXpressoIDE_11.7.0_9198/ide/plugins/com.nxp.mcuxpresso.tools.macosx_11.7.0.202209140929/tools/bin/../lib/gcc/arm-none-eabi/10.3.1/thumb/v7e-m+fp/hard/libcr_eabihelpers.a(memcpy.o)
__aeabi_memset4                                   /Applications/MCUXpressoIDE_11.7.0_9198/ide/plugins/com.nxp.mcuxpresso.tools.macosx_11.7.0.202209140929/tools/bin/../lib/gcc/arm-none-eabi/10.3.1/thumb/v7e-m+fp/hard/libcr_eabihelpers.a(memcpy.o)
__aeabi_memset8                                   /Applications/MCUXpressoIDE_11.7.0_9198/ide/plugins/com.nxp.mcuxpresso.tools.macosx_11.7.0.202209140929/tools/bin/../lib/gcc/arm-none-eabi/10.3.1/thumb/v7e-m+fp/hard/libcr_eabihelpers.a(memcpy.o)
__aeabi_ui2d                                      /Applications/MCUXpressoIDE_11.7.0_9198/ide/plugins/com.nxp.mcuxpresso.tools.macosx_11.7.0.202209140929/tools/bin/../lib/gcc/arm-none-eabi/10.3.1/thumb/v7e-m+fp/hard/libcr_eabihelpers.a(double.o)
                                                  ./drivers/fsl_clock.o
__aeabi_ul2d                                      /Applications/MCUXpressoIDE_11.7.0_9198/ide/plugins/com.nxp.mcuxpresso.tools.macosx_11.7.0.202209140929/tools/bin/../lib/gcc/arm-none-eabi/10.3.1/thumb/v7e-m+fp/hard/libcr_eabihelpers.a(double.o)
__aeabi_uldivmod                                  /Applications/MCUXpressoIDE_11.7.0_9198/ide/plugins/com.nxp.mcuxpresso.tools.macosx_11.7.0.202209140929/tools/bin/../lib/gcc/arm-none-eabi/10.3.1/thumb/v7e-m+fp/hard/libcr_eabihelpers.a(division_64.o)
                                                  ./drivers/fsl_common_arm.o
__base_NCACHE_REGION                              ./board/board.o
__bhs_ldivmod1                                    /Applications/MCUXpressoIDE_11.7.0_9198/ide/plugins/com.nxp.mcuxpresso.tools.macosx_11.7.0.202209140929/tools/bin/../lib/gcc/arm-none-eabi/10.3.1/thumb/v7e-m+fp/hard/libcr_eabihelpers.a(division_64.o)
__bhs_ui2d                                        /Applications/MCUXpressoIDE_11.7.0_9198/ide/plugins/com.nxp.mcuxpresso.tools.macosx_11.7.0.202209140929/tools/bin/../lib/gcc/arm-none-eabi/10.3.1/thumb/v7e-m+fp/hard/libcr_eabihelpers.a(double.o)
__bhs_ul2d                                        /Applications/MCUXpressoIDE_11.7.0_9198/ide/plugins/com.nxp.mcuxpresso.tools.macosx_11.7.0.202209140929/tools/bin/../lib/gcc/arm-none-eabi/10.3.1/thumb/v7e-m+fp/hard/libcr_eabihelpers.a(double.o)
__boot_hdr_boot_data_loadaddr__                   ./xip/fsl_flexspi_nor_boot.o
__boot_hdr_ivt_loadaddr__                         ./xip/fsl_flexspi_nor_boot.o
__bss_section_table_end                           ./startup/startup_mimxrt1176_cm7.o
__check_heap_overflow                             /Applications/MCUXpressoIDE_11.7.0_9198/ide/plugins/com.nxp.mcuxpresso.tools.macosx_11.7.0.202209140929/tools/bin/../lib/gcc/arm-none-eabi/10.3.1/../../../../arm-none-eabi/lib/thumb/v7e-m+fp/hard/libcr_c.a(_cr_check_heap.o)
                                                  /Applications/MCUXpressoIDE_11.7.0_9198/ide/plugins/com.nxp.mcuxpresso.tools.macosx_11.7.0.202209140929/tools/bin/../lib/gcc/arm-none-eabi/10.3.1/../../../../arm-none-eabi/lib/thumb/v7e-m+fp/hard/libcr_c.a(_cr_sbrk.o)
__ctype                                           /Applications/MCUXpressoIDE_11.7.0_9198/ide/plugins/com.nxp.mcuxpresso.tools.macosx_11.7.0.202209140929/tools/bin/../lib/gcc/arm-none-eabi/10.3.1/../../../../arm-none-eabi/lib/thumb/v7e-m+fp/hard/libcr_c.a(ctype.o)
                                                  /Applications/MCUXpressoIDE_11.7.0_9198/ide/plugins/com.nxp.mcuxpresso.tools.macosx_11.7.0.202209140929/tools/bin/../lib/gcc/arm-none-eabi/10.3.1/../../../../arm-none-eabi/lib/thumb/v7e-m+fp/hard/libcr_c.a(scanf.o)
__data_section_table                              ./startup/startup_mimxrt1176_cm7.o
__data_section_table_end                          ./startup/startup_mimxrt1176_cm7.o
__end_of_heap                                     /Applications/MCUXpressoIDE_11.7.0_9198/ide/plugins/com.nxp.mcuxpresso.tools.macosx_11.7.0.202209140929/tools/bin/../lib/gcc/arm-none-eabi/10.3.1/../../../../arm-none-eabi/lib/thumb/v7e-m+fp/hard/libcr_c.a(__init_alloc.o)
                                                  /Applications/MCUXpressoIDE_11.7.0_9198/ide/plugins/com.nxp.mcuxpresso.tools.macosx_11.7.0.202209140929/tools/bin/../lib/gcc/arm-none-eabi/10.3.1/../../../../arm-none-eabi/lib/thumb/v7e-m+fp/hard/libcr_c.a(_cr_sbrk.o)
__exit                                            /Applications/MCUXpressoIDE_11.7.0_9198/ide/plugins/com.nxp.mcuxpresso.tools.macosx_11.7.0.202209140929/tools/bin/../lib/gcc/arm-none-eabi/10.3.1/../../../../arm-none-eabi/lib/thumb/v7e-m+fp/hard/libcr_nohost_nf.a(__sys_appexit.o)
__filbuf                                          /Applications/MCUXpressoIDE_11.7.0_9198/ide/plugins/com.nxp.mcuxpresso.tools.macosx_11.7.0.202209140929/tools/bin/../lib/gcc/arm-none-eabi/10.3.1/../../../../arm-none-eabi/lib/thumb/v7e-m+fp/hard/libcr_c.a(__fillbuf.o)
                                                  /Applications/MCUXpressoIDE_11.7.0_9198/ide/plugins/com.nxp.mcuxpresso.tools.macosx_11.7.0.202209140929/tools/bin/../lib/gcc/arm-none-eabi/10.3.1/../../../../arm-none-eabi/lib/thumb/v7e-m+fp/hard/libcr_c.a(scanf.o)
__flsbuf                                          /Applications/MCUXpressoIDE_11.7.0_9198/ide/plugins/com.nxp.mcuxpresso.tools.macosx_11.7.0.202209140929/tools/bin/../lib/gcc/arm-none-eabi/10.3.1/../../../../arm-none-eabi/lib/thumb/v7e-m+fp/hard/libcr_c.a(_deferredlazyseek.o)
__heaps                                           /Applications/MCUXpressoIDE_11.7.0_9198/ide/plugins/com.nxp.mcuxpresso.tools.macosx_11.7.0.202209140929/tools/bin/../lib/gcc/arm-none-eabi/10.3.1/../../../../arm-none-eabi/lib/thumb/v7e-m+fp/hard/libcr_c.a(__init_alloc.o)
                                                  /Applications/MCUXpressoIDE_11.7.0_9198/ide/plugins/com.nxp.mcuxpresso.tools.macosx_11.7.0.202209140929/tools/bin/../lib/gcc/arm-none-eabi/10.3.1/../../../../arm-none-eabi/lib/thumb/v7e-m+fp/hard/libcr_c.a(alloc.o)
__main                                            /Applications/MCUXpressoIDE_11.7.0_9198/ide/plugins/com.nxp.mcuxpresso.tools.macosx_11.7.0.202209140929/tools/bin/../lib/gcc/arm-none-eabi/10.3.1/../../../../arm-none-eabi/lib/thumb/v7e-m+fp/hard/libcr_nohost_nf.a(_cr__main.o)
                                                  ./startup/startup_mimxrt1176_cm7.o
__num_Ciob_streams                                /Applications/MCUXpressoIDE_11.7.0_9198/ide/plugins/com.nxp.mcuxpresso.tools.macosx_11.7.0.202209140929/tools/bin/../lib/gcc/arm-none-eabi/10.3.1/../../../../arm-none-eabi/lib/thumb/v7e-m+fp/hard/libcr_nohost_nf.a(__ciob.o)
                                                  /Applications/MCUXpressoIDE_11.7.0_9198/ide/plugins/com.nxp.mcuxpresso.tools.macosx_11.7.0.202209140929/tools/bin/../lib/gcc/arm-none-eabi/10.3.1/../../../../arm-none-eabi/lib/thumb/v7e-m+fp/hard/libcr_c.a(fflush.o)
                                                  /Applications/MCUXpressoIDE_11.7.0_9198/ide/plugins/com.nxp.mcuxpresso.tools.macosx_11.7.0.202209140929/tools/bin/../lib/gcc/arm-none-eabi/10.3.1/../../../../arm-none-eabi/lib/thumb/v7e-m+fp/hard/libcr_c.a(initio.o)
__readc                                           /Applications/MCUXpressoIDE_11.7.0_9198/ide/plugins/com.nxp.mcuxpresso.tools.macosx_11.7.0.202209140929/tools/bin/../lib/gcc/arm-none-eabi/10.3.1/../../../../arm-none-eabi/lib/thumb/v7e-m+fp/hard/libcr_nohost_nf.a(__sys_readc.o)
__sys_appexit                                     /Applications/MCUXpressoIDE_11.7.0_9198/ide/plugins/com.nxp.mcuxpresso.tools.macosx_11.7.0.202209140929/tools/bin/../lib/gcc/arm-none-eabi/10.3.1/../../../../arm-none-eabi/lib/thumb/v7e-m+fp/hard/libcr_nohost_nf.a(__sys_appexit.o)
                                                  /Applications/MCUXpressoIDE_11.7.0_9198/ide/plugins/com.nxp.mcuxpresso.tools.macosx_11.7.0.202209140929/tools/bin/../lib/gcc/arm-none-eabi/10.3.1/../../../../arm-none-eabi/lib/thumb/v7e-m+fp/hard/libcr_c.a(alloc.o)
__sys_close                                       /Applications/MCUXpressoIDE_11.7.0_9198/ide/plugins/com.nxp.mcuxpresso.tools.macosx_11.7.0.202209140929/tools/bin/../lib/gcc/arm-none-eabi/10.3.1/../../../../arm-none-eabi/lib/thumb/v7e-m+fp/hard/libcr_nohost_nf.a(__sys_close.o)
                                                  /Applications/MCUXpressoIDE_11.7.0_9198/ide/plugins/com.nxp.mcuxpresso.tools.macosx_11.7.0.202209140929/tools/bin/../lib/gcc/arm-none-eabi/10.3.1/../../../../arm-none-eabi/lib/thumb/v7e-m+fp/hard/libcr_c.a(fclose.o)
__sys_flen                                        /Applications/MCUXpressoIDE_11.7.0_9198/ide/plugins/com.nxp.mcuxpresso.tools.macosx_11.7.0.202209140929/tools/bin/../lib/gcc/arm-none-eabi/10.3.1/../../../../arm-none-eabi/lib/thumb/v7e-m+fp/hard/libcr_nohost_nf.a(__sys_flen.o)
                                                  /Applications/MCUXpressoIDE_11.7.0_9198/ide/plugins/com.nxp.mcuxpresso.tools.macosx_11.7.0.202209140929/tools/bin/../lib/gcc/arm-none-eabi/10.3.1/../../../../arm-none-eabi/lib/thumb/v7e-m+fp/hard/libcr_c.a(fseek.o)
                                                  /Applications/MCUXpressoIDE_11.7.0_9198/ide/plugins/com.nxp.mcuxpresso.tools.macosx_11.7.0.202209140929/tools/bin/../lib/gcc/arm-none-eabi/10.3.1/../../../../arm-none-eabi/lib/thumb/v7e-m+fp/hard/libcr_c.a(_writebuf.o)
__sys_istty                                       /Applications/MCUXpressoIDE_11.7.0_9198/ide/plugins/com.nxp.mcuxpresso.tools.macosx_11.7.0.202209140929/tools/bin/../lib/gcc/arm-none-eabi/10.3.1/../../../../arm-none-eabi/lib/thumb/v7e-m+fp/hard/libcr_nohost_nf.a(__sys_istty.o)
                                                  /Applications/MCUXpressoIDE_11.7.0_9198/ide/plugins/com.nxp.mcuxpresso.tools.macosx_11.7.0.202209140929/tools/bin/../lib/gcc/arm-none-eabi/10.3.1/../../../../arm-none-eabi/lib/thumb/v7e-m+fp/hard/libcr_c.a(fseek.o)
                                                  /Applications/MCUXpressoIDE_11.7.0_9198/ide/plugins/com.nxp.mcuxpresso.tools.macosx_11.7.0.202209140929/tools/bin/../lib/gcc/arm-none-eabi/10.3.1/../../../../arm-none-eabi/lib/thumb/v7e-m+fp/hard/libcr_c.a(_deferredlazyseek.o)
__sys_read                                        /Applications/MCUXpressoIDE_11.7.0_9198/ide/plugins/com.nxp.mcuxpresso.tools.macosx_11.7.0.202209140929/tools/bin/../lib/gcc/arm-none-eabi/10.3.1/../../../../arm-none-eabi/lib/thumb/v7e-m+fp/hard/libcr_nohost_nf.a(__sys_read.o)
                                                  /Applications/MCUXpressoIDE_11.7.0_9198/ide/plugins/com.nxp.mcuxpresso.tools.macosx_11.7.0.202209140929/tools/bin/../lib/gcc/arm-none-eabi/10.3.1/../../../../arm-none-eabi/lib/thumb/v7e-m+fp/hard/libcr_c.a(__fillbuf.o)
__sys_readc                                       /Applications/MCUXpressoIDE_11.7.0_9198/ide/plugins/com.nxp.mcuxpresso.tools.macosx_11.7.0.202209140929/tools/bin/../lib/gcc/arm-none-eabi/10.3.1/../../../../arm-none-eabi/lib/thumb/v7e-m+fp/hard/libcr_nohost_nf.a(__sys_readc.o)
                                                  /Applications/MCUXpressoIDE_11.7.0_9198/ide/plugins/com.nxp.mcuxpresso.tools.macosx_11.7.0.202209140929/tools/bin/../lib/gcc/arm-none-eabi/10.3.1/../../../../arm-none-eabi/lib/thumb/v7e-m+fp/hard/libcr_c.a(__fillbuf.o)
__sys_remove                                      /Applications/MCUXpressoIDE_11.7.0_9198/ide/plugins/com.nxp.mcuxpresso.tools.macosx_11.7.0.202209140929/tools/bin/../lib/gcc/arm-none-eabi/10.3.1/../../../../arm-none-eabi/lib/thumb/v7e-m+fp/hard/libcr_nohost_nf.a(__sys_remove.o)
                                                  /Applications/MCUXpressoIDE_11.7.0_9198/ide/plugins/com.nxp.mcuxpresso.tools.macosx_11.7.0.202209140929/tools/bin/../lib/gcc/arm-none-eabi/10.3.1/../../../../arm-none-eabi/lib/thumb/v7e-m+fp/hard/libcr_c.a(remove.o)
__sys_rename                                      /Applications/MCUXpressoIDE_11.7.0_9198/ide/plugins/com.nxp.mcuxpresso.tools.macosx_11.7.0.202209140929/tools/bin/../lib/gcc/arm-none-eabi/10.3.1/../../../../arm-none-eabi/lib/thumb/v7e-m+fp/hard/libcr_nohost_nf.a(__sys_rename.o)
                                                  /Applications/MCUXpressoIDE_11.7.0_9198/ide/plugins/com.nxp.mcuxpresso.tools.macosx_11.7.0.202209140929/tools/bin/../lib/gcc/arm-none-eabi/10.3.1/../../../../arm-none-eabi/lib/thumb/v7e-m+fp/hard/libcr_c.a(remove.o)
__sys_seek                                        /Applications/MCUXpressoIDE_11.7.0_9198/ide/plugins/com.nxp.mcuxpresso.tools.macosx_11.7.0.202209140929/tools/bin/../lib/gcc/arm-none-eabi/10.3.1/../../../../arm-none-eabi/lib/thumb/v7e-m+fp/hard/libcr_nohost_nf.a(__sys_seek.o)
                                                  /Applications/MCUXpressoIDE_11.7.0_9198/ide/plugins/com.nxp.mcuxpresso.tools.macosx_11.7.0.202209140929/tools/bin/../lib/gcc/arm-none-eabi/10.3.1/../../../../arm-none-eabi/lib/thumb/v7e-m+fp/hard/libcr_c.a(_writebuf.o)
                                                  /Applications/MCUXpressoIDE_11.7.0_9198/ide/plugins/com.nxp.mcuxpresso.tools.macosx_11.7.0.202209140929/tools/bin/../lib/gcc/arm-none-eabi/10.3.1/../../../../arm-none-eabi/lib/thumb/v7e-m+fp/hard/libcr_c.a(__fillbuf.o)
__sys_tmpnam                                      /Applications/MCUXpressoIDE_11.7.0_9198/ide/plugins/com.nxp.mcuxpresso.tools.macosx_11.7.0.202209140929/tools/bin/../lib/gcc/arm-none-eabi/10.3.1/../../../../arm-none-eabi/lib/thumb/v7e-m+fp/hard/libcr_nohost_nf.a(__sys_tmpnam.o)
                                                  /Applications/MCUXpressoIDE_11.7.0_9198/ide/plugins/com.nxp.mcuxpresso.tools.macosx_11.7.0.202209140929/tools/bin/../lib/gcc/arm-none-eabi/10.3.1/../../../../arm-none-eabi/lib/thumb/v7e-m+fp/hard/libcr_c.a(fclose.o)
__sys_write                                       /Applications/MCUXpressoIDE_11.7.0_9198/ide/plugins/com.nxp.mcuxpresso.tools.macosx_11.7.0.202209140929/tools/bin/../lib/gcc/arm-none-eabi/10.3.1/../../../../arm-none-eabi/lib/thumb/v7e-m+fp/hard/libcr_nohost_nf.a(__sys_write.o)
                                                  /Applications/MCUXpressoIDE_11.7.0_9198/ide/plugins/com.nxp.mcuxpresso.tools.macosx_11.7.0.202209140929/tools/bin/../lib/gcc/arm-none-eabi/10.3.1/../../../../arm-none-eabi/lib/thumb/v7e-m+fp/hard/libcr_c.a(_writebuf.o)
                                                  /Applications/MCUXpressoIDE_11.7.0_9198/ide/plugins/com.nxp.mcuxpresso.tools.macosx_11.7.0.202209140929/tools/bin/../lib/gcc/arm-none-eabi/10.3.1/../../../../arm-none-eabi/lib/thumb/v7e-m+fp/hard/libcr_c.a(alloc.o)
__top_NCACHE_REGION                               ./board/board.o
_boot_loadaddr                                    ./xip/fsl_flexspi_nor_boot.o
_boot_size                                        ./xip/fsl_flexspi_nor_boot.o
_deferredlazyseek                                 /Applications/MCUXpressoIDE_11.7.0_9198/ide/plugins/com.nxp.mcuxpresso.tools.macosx_11.7.0.202209140929/tools/bin/../lib/gcc/arm-none-eabi/10.3.1/../../../../arm-none-eabi/lib/thumb/v7e-m+fp/hard/libcr_c.a(_deferredlazyseek.o)
                                                  /Applications/MCUXpressoIDE_11.7.0_9198/ide/plugins/com.nxp.mcuxpresso.tools.macosx_11.7.0.202209140929/tools/bin/../lib/gcc/arm-none-eabi/10.3.1/../../../../arm-none-eabi/lib/thumb/v7e-m+fp/hard/libcr_c.a(_do_fflush.o)
                                                  /Applications/MCUXpressoIDE_11.7.0_9198/ide/plugins/com.nxp.mcuxpresso.tools.macosx_11.7.0.202209140929/tools/bin/../lib/gcc/arm-none-eabi/10.3.1/../../../../arm-none-eabi/lib/thumb/v7e-m+fp/hard/libcr_c.a(__fillbuf.o)
_do_fflush                                        /Applications/MCUXpressoIDE_11.7.0_9198/ide/plugins/com.nxp.mcuxpresso.tools.macosx_11.7.0.202209140929/tools/bin/../lib/gcc/arm-none-eabi/10.3.1/../../../../arm-none-eabi/lib/thumb/v7e-m+fp/hard/libcr_c.a(_do_fflush.o)
                                                  /Applications/MCUXpressoIDE_11.7.0_9198/ide/plugins/com.nxp.mcuxpresso.tools.macosx_11.7.0.202209140929/tools/bin/../lib/gcc/arm-none-eabi/10.3.1/../../../../arm-none-eabi/lib/thumb/v7e-m+fp/hard/libcr_c.a(fflush.o)
_fdopen                                           /Applications/MCUXpressoIDE_11.7.0_9198/ide/plugins/com.nxp.mcuxpresso.tools.macosx_11.7.0.202209140929/tools/bin/../lib/gcc/arm-none-eabi/10.3.1/../../../../arm-none-eabi/lib/thumb/v7e-m+fp/hard/libcr_c.a(_fdopen.o)
                                                  /Applications/MCUXpressoIDE_11.7.0_9198/ide/plugins/com.nxp.mcuxpresso.tools.macosx_11.7.0.202209140929/tools/bin/../lib/gcc/arm-none-eabi/10.3.1/../../../../arm-none-eabi/lib/thumb/v7e-m+fp/hard/libcr_c.a(initio.o)
_fflush                                           /Applications/MCUXpressoIDE_11.7.0_9198/ide/plugins/com.nxp.mcuxpresso.tools.macosx_11.7.0.202209140929/tools/bin/../lib/gcc/arm-none-eabi/10.3.1/../../../../arm-none-eabi/lib/thumb/v7e-m+fp/hard/libcr_c.a(_fflush.o)
                                                  /Applications/MCUXpressoIDE_11.7.0_9198/ide/plugins/com.nxp.mcuxpresso.tools.macosx_11.7.0.202209140929/tools/bin/../lib/gcc/arm-none-eabi/10.3.1/../../../../arm-none-eabi/lib/thumb/v7e-m+fp/hard/libcr_c.a(_do_fflush.o)
                                                  /Applications/MCUXpressoIDE_11.7.0_9198/ide/plugins/com.nxp.mcuxpresso.tools.macosx_11.7.0.202209140929/tools/bin/../lib/gcc/arm-none-eabi/10.3.1/../../../../arm-none-eabi/lib/thumb/v7e-m+fp/hard/libcr_c.a(_deferredlazyseek.o)
                                                  /Applications/MCUXpressoIDE_11.7.0_9198/ide/plugins/com.nxp.mcuxpresso.tools.macosx_11.7.0.202209140929/tools/bin/../lib/gcc/arm-none-eabi/10.3.1/../../../../arm-none-eabi/lib/thumb/v7e-m+fp/hard/libcr_c.a(__fillbuf.o)
_fillb2                                           /Applications/MCUXpressoIDE_11.7.0_9198/ide/plugins/com.nxp.mcuxpresso.tools.macosx_11.7.0.202209140929/tools/bin/../lib/gcc/arm-none-eabi/10.3.1/../../../../arm-none-eabi/lib/thumb/v7e-m+fp/hard/libcr_c.a(__fillbuf.o)
_frexpl                                           /Applications/MCUXpressoIDE_11.7.0_9198/ide/plugins/com.nxp.mcuxpresso.tools.macosx_11.7.0.202209140929/tools/bin/../lib/gcc/arm-none-eabi/10.3.1/../../../../arm-none-eabi/lib/thumb/v7e-m+fp/hard/libcr_c.a(_frexpl.o)
                                                  /Applications/MCUXpressoIDE_11.7.0_9198/ide/plugins/com.nxp.mcuxpresso.tools.macosx_11.7.0.202209140929/tools/bin/../lib/gcc/arm-none-eabi/10.3.1/../../../../arm-none-eabi/lib/thumb/v7e-m+fp/hard/libcr_c.a(scanf.o)
_init_alloc                                       /Applications/MCUXpressoIDE_11.7.0_9198/ide/plugins/com.nxp.mcuxpresso.tools.macosx_11.7.0.202209140929/tools/bin/../lib/gcc/arm-none-eabi/10.3.1/../../../../arm-none-eabi/lib/thumb/v7e-m+fp/hard/libcr_c.a(__init_alloc.o)
_initio                                           /Applications/MCUXpressoIDE_11.7.0_9198/ide/plugins/com.nxp.mcuxpresso.tools.macosx_11.7.0.202209140929/tools/bin/../lib/gcc/arm-none-eabi/10.3.1/../../../../arm-none-eabi/lib/thumb/v7e-m+fp/hard/libcr_c.a(initio.o)
                                                  /Applications/MCUXpressoIDE_11.7.0_9198/ide/plugins/com.nxp.mcuxpresso.tools.macosx_11.7.0.202209140929/tools/bin/../lib/gcc/arm-none-eabi/10.3.1/../../../../arm-none-eabi/lib/thumb/v7e-m+fp/hard/libcr_nohost_nf.a(_cr__main.o)
_ldexpl                                           /Applications/MCUXpressoIDE_11.7.0_9198/ide/plugins/com.nxp.mcuxpresso.tools.macosx_11.7.0.202209140929/tools/bin/../lib/gcc/arm-none-eabi/10.3.1/../../../../arm-none-eabi/lib/thumb/v7e-m+fp/hard/libcr_c.a(_ldexpl.o)
                                                  /Applications/MCUXpressoIDE_11.7.0_9198/ide/plugins/com.nxp.mcuxpresso.tools.macosx_11.7.0.202209140929/tools/bin/../lib/gcc/arm-none-eabi/10.3.1/../../../../arm-none-eabi/lib/thumb/v7e-m+fp/hard/libcr_c.a(scanf.o)
_ncc_vfscanf                                      /Applications/MCUXpressoIDE_11.7.0_9198/ide/plugins/com.nxp.mcuxpresso.tools.macosx_11.7.0.202209140929/tools/bin/../lib/gcc/arm-none-eabi/10.3.1/../../../../arm-none-eabi/lib/thumb/v7e-m+fp/hard/libcr_c.a(scanf.o)
_pvHeapLimit                                      /Applications/MCUXpressoIDE_11.7.0_9198/ide/plugins/com.nxp.mcuxpresso.tools.macosx_11.7.0.202209140929/tools/bin/../lib/gcc/arm-none-eabi/10.3.1/../../../../arm-none-eabi/lib/thumb/v7e-m+fp/hard/libcr_c.a(_cr_check_heap.o)
_pvHeapStart                                      /Applications/MCUXpressoIDE_11.7.0_9198/ide/plugins/com.nxp.mcuxpresso.tools.macosx_11.7.0.202209140929/tools/bin/../lib/gcc/arm-none-eabi/10.3.1/../../../../arm-none-eabi/lib/thumb/v7e-m+fp/hard/libcr_c.a(_cr_sbrk.o)
_sbrk                                             /Applications/MCUXpressoIDE_11.7.0_9198/ide/plugins/com.nxp.mcuxpresso.tools.macosx_11.7.0.202209140929/tools/bin/../lib/gcc/arm-none-eabi/10.3.1/../../../../arm-none-eabi/lib/thumb/v7e-m+fp/hard/libcr_c.a(_cr_sbrk.o)
                                                  /Applications/MCUXpressoIDE_11.7.0_9198/ide/plugins/com.nxp.mcuxpresso.tools.macosx_11.7.0.202209140929/tools/bin/../lib/gcc/arm-none-eabi/10.3.1/../../../../arm-none-eabi/lib/thumb/v7e-m+fp/hard/libcr_c.a(alloc.o)
_terminateio                                      /Applications/MCUXpressoIDE_11.7.0_9198/ide/plugins/com.nxp.mcuxpresso.tools.macosx_11.7.0.202209140929/tools/bin/../lib/gcc/arm-none-eabi/10.3.1/../../../../arm-none-eabi/lib/thumb/v7e-m+fp/hard/libcr_c.a(initio.o)
_vStackTop                                        ./startup/startup_mimxrt1176_cm7.o
armPllConfig_BOARD_BootClockRUN                   ./board/clock_config.o
armPllConfig_BOARD_BootClockRUN_800M              ./board/clock_config.o
atof                                              /Applications/MCUXpressoIDE_11.7.0_9198/ide/plugins/com.nxp.mcuxpresso.tools.macosx_11.7.0.202209140929/tools/bin/../lib/gcc/arm-none-eabi/10.3.1/../../../../arm-none-eabi/lib/thumb/v7e-m+fp/hard/libcr_c.a(scanf.o)
atoi                                              /Applications/MCUXpressoIDE_11.7.0_9198/ide/plugins/com.nxp.mcuxpresso.tools.macosx_11.7.0.202209140929/tools/bin/../lib/gcc/arm-none-eabi/10.3.1/../../../../arm-none-eabi/lib/thumb/v7e-m+fp/hard/libcr_c.a(scanf.o)
atol                                              /Applications/MCUXpressoIDE_11.7.0_9198/ide/plugins/com.nxp.mcuxpresso.tools.macosx_11.7.0.202209140929/tools/bin/../lib/gcc/arm-none-eabi/10.3.1/../../../../arm-none-eabi/lib/thumb/v7e-m+fp/hard/libcr_c.a(scanf.o)
atoll                                             /Applications/MCUXpressoIDE_11.7.0_9198/ide/plugins/com.nxp.mcuxpresso.tools.macosx_11.7.0.202209140929/tools/bin/../lib/gcc/arm-none-eabi/10.3.1/../../../../arm-none-eabi/lib/thumb/v7e-m+fp/hard/libcr_c.a(scanf.o)
bss_init                                          ./startup/startup_mimxrt1176_cm7.o
calloc                                            /Applications/MCUXpressoIDE_11.7.0_9198/ide/plugins/com.nxp.mcuxpresso.tools.macosx_11.7.0.202209140929/tools/bin/../lib/gcc/arm-none-eabi/10.3.1/../../../../arm-none-eabi/lib/thumb/v7e-m+fp/hard/libcr_c.a(alloc.o)
data_init                                         ./startup/startup_mimxrt1176_cm7.o
dcd_data                                          ./board/dcd.o
eLCDIF_DriverIRQHandler                           ./startup/startup_mimxrt1176_cm7.o
eLCDIF_IRQHandler                                 ./startup/startup_mimxrt1176_cm7.o
errno                                             /Applications/MCUXpressoIDE_11.7.0_9198/ide/plugins/com.nxp.mcuxpresso.tools.macosx_11.7.0.202209140929/tools/bin/../lib/gcc/arm-none-eabi/10.3.1/../../../../arm-none-eabi/lib/thumb/v7e-m+fp/hard/libcr_c.a(errno.o)
                                                  /Applications/MCUXpressoIDE_11.7.0_9198/ide/plugins/com.nxp.mcuxpresso.tools.macosx_11.7.0.202209140929/tools/bin/../lib/gcc/arm-none-eabi/10.3.1/../../../../arm-none-eabi/lib/thumb/v7e-m+fp/hard/libcr_c.a(ftell.o)
                                                  /Applications/MCUXpressoIDE_11.7.0_9198/ide/plugins/com.nxp.mcuxpresso.tools.macosx_11.7.0.202209140929/tools/bin/../lib/gcc/arm-none-eabi/10.3.1/../../../../arm-none-eabi/lib/thumb/v7e-m+fp/hard/libcr_c.a(_ldexpl.o)
                                                  /Applications/MCUXpressoIDE_11.7.0_9198/ide/plugins/com.nxp.mcuxpresso.tools.macosx_11.7.0.202209140929/tools/bin/../lib/gcc/arm-none-eabi/10.3.1/../../../../arm-none-eabi/lib/thumb/v7e-m+fp/hard/libcr_c.a(_cr_sbrk.o)
                                                  /Applications/MCUXpressoIDE_11.7.0_9198/ide/plugins/com.nxp.mcuxpresso.tools.macosx_11.7.0.202209140929/tools/bin/../lib/gcc/arm-none-eabi/10.3.1/../../../../arm-none-eabi/lib/thumb/v7e-m+fp/hard/libcr_c.a(scanf.o)
                                                  ./utilities/fsl_str.o
fclose                                            /Applications/MCUXpressoIDE_11.7.0_9198/ide/plugins/com.nxp.mcuxpresso.tools.macosx_11.7.0.202209140929/tools/bin/../lib/gcc/arm-none-eabi/10.3.1/../../../../arm-none-eabi/lib/thumb/v7e-m+fp/hard/libcr_c.a(fclose.o)
                                                  /Applications/MCUXpressoIDE_11.7.0_9198/ide/plugins/com.nxp.mcuxpresso.tools.macosx_11.7.0.202209140929/tools/bin/../lib/gcc/arm-none-eabi/10.3.1/../../../../arm-none-eabi/lib/thumb/v7e-m+fp/hard/libcr_c.a(_fdopen.o)
                                                  /Applications/MCUXpressoIDE_11.7.0_9198/ide/plugins/com.nxp.mcuxpresso.tools.macosx_11.7.0.202209140929/tools/bin/../lib/gcc/arm-none-eabi/10.3.1/../../../../arm-none-eabi/lib/thumb/v7e-m+fp/hard/libcr_c.a(initio.o)
fflush                                            /Applications/MCUXpressoIDE_11.7.0_9198/ide/plugins/com.nxp.mcuxpresso.tools.macosx_11.7.0.202209140929/tools/bin/../lib/gcc/arm-none-eabi/10.3.1/../../../../arm-none-eabi/lib/thumb/v7e-m+fp/hard/libcr_c.a(fflush.o)
                                                  /Applications/MCUXpressoIDE_11.7.0_9198/ide/plugins/com.nxp.mcuxpresso.tools.macosx_11.7.0.202209140929/tools/bin/../lib/gcc/arm-none-eabi/10.3.1/../../../../arm-none-eabi/lib/thumb/v7e-m+fp/hard/libcr_c.a(fclose.o)
free                                              /Applications/MCUXpressoIDE_11.7.0_9198/ide/plugins/com.nxp.mcuxpresso.tools.macosx_11.7.0.202209140929/tools/bin/../lib/gcc/arm-none-eabi/10.3.1/../../../../arm-none-eabi/lib/thumb/v7e-m+fp/hard/libcr_c.a(alloc.o)
                                                  /Applications/MCUXpressoIDE_11.7.0_9198/ide/plugins/com.nxp.mcuxpresso.tools.macosx_11.7.0.202209140929/tools/bin/../lib/gcc/arm-none-eabi/10.3.1/../../../../arm-none-eabi/lib/thumb/v7e-m+fp/hard/libcr_c.a(fclose.o)
                                                  ./drivers/fsl_common.o
fscanf                                            /Applications/MCUXpressoIDE_11.7.0_9198/ide/plugins/com.nxp.mcuxpresso.tools.macosx_11.7.0.202209140929/tools/bin/../lib/gcc/arm-none-eabi/10.3.1/../../../../arm-none-eabi/lib/thumb/v7e-m+fp/hard/libcr_c.a(scanf.o)
fseek                                             /Applications/MCUXpressoIDE_11.7.0_9198/ide/plugins/com.nxp.mcuxpresso.tools.macosx_11.7.0.202209140929/tools/bin/../lib/gcc/arm-none-eabi/10.3.1/../../../../arm-none-eabi/lib/thumb/v7e-m+fp/hard/libcr_c.a(fseek.o)
                                                  /Applications/MCUXpressoIDE_11.7.0_9198/ide/plugins/com.nxp.mcuxpresso.tools.macosx_11.7.0.202209140929/tools/bin/../lib/gcc/arm-none-eabi/10.3.1/../../../../arm-none-eabi/lib/thumb/v7e-m+fp/hard/libcr_c.a(_do_fflush.o)
                                                  /Applications/MCUXpressoIDE_11.7.0_9198/ide/plugins/com.nxp.mcuxpresso.tools.macosx_11.7.0.202209140929/tools/bin/../lib/gcc/arm-none-eabi/10.3.1/../../../../arm-none-eabi/lib/thumb/v7e-m+fp/hard/libcr_c.a(_fdopen.o)
                                                  /Applications/MCUXpressoIDE_11.7.0_9198/ide/plugins/com.nxp.mcuxpresso.tools.macosx_11.7.0.202209140929/tools/bin/../lib/gcc/arm-none-eabi/10.3.1/../../../../arm-none-eabi/lib/thumb/v7e-m+fp/hard/libcr_c.a(_deferredlazyseek.o)
ftell                                             /Applications/MCUXpressoIDE_11.7.0_9198/ide/plugins/com.nxp.mcuxpresso.tools.macosx_11.7.0.202209140929/tools/bin/../lib/gcc/arm-none-eabi/10.3.1/../../../../arm-none-eabi/lib/thumb/v7e-m+fp/hard/libcr_c.a(ftell.o)
                                                  /Applications/MCUXpressoIDE_11.7.0_9198/ide/plugins/com.nxp.mcuxpresso.tools.macosx_11.7.0.202209140929/tools/bin/../lib/gcc/arm-none-eabi/10.3.1/../../../../arm-none-eabi/lib/thumb/v7e-m+fp/hard/libcr_c.a(fseek.o)
g_boot_data                                       ./xip/fsl_flexspi_nor_boot.o
g_pfnVectors                                      ./startup/startup_mimxrt1176_cm7.o
                                                  ./device/system_MIMXRT1176_cm7.o
g_serialHandle                                    ./utilities/fsl_debug_console.o
image_vector_table                                ./xip/fsl_flexspi_nor_boot.o
isalnum                                           /Applications/MCUXpressoIDE_11.7.0_9198/ide/plugins/com.nxp.mcuxpresso.tools.macosx_11.7.0.202209140929/tools/bin/../lib/gcc/arm-none-eabi/10.3.1/../../../../arm-none-eabi/lib/thumb/v7e-m+fp/hard/libcr_c.a(ctype.o)
isalpha                                           /Applications/MCUXpressoIDE_11.7.0_9198/ide/plugins/com.nxp.mcuxpresso.tools.macosx_11.7.0.202209140929/tools/bin/../lib/gcc/arm-none-eabi/10.3.1/../../../../arm-none-eabi/lib/thumb/v7e-m+fp/hard/libcr_c.a(ctype.o)
iscntrl                                           /Applications/MCUXpressoIDE_11.7.0_9198/ide/plugins/com.nxp.mcuxpresso.tools.macosx_11.7.0.202209140929/tools/bin/../lib/gcc/arm-none-eabi/10.3.1/../../../../arm-none-eabi/lib/thumb/v7e-m+fp/hard/libcr_c.a(ctype.o)
isdigit                                           /Applications/MCUXpressoIDE_11.7.0_9198/ide/plugins/com.nxp.mcuxpresso.tools.macosx_11.7.0.202209140929/tools/bin/../lib/gcc/arm-none-eabi/10.3.1/../../../../arm-none-eabi/lib/thumb/v7e-m+fp/hard/libcr_c.a(ctype.o)
isgraph                                           /Applications/MCUXpressoIDE_11.7.0_9198/ide/plugins/com.nxp.mcuxpresso.tools.macosx_11.7.0.202209140929/tools/bin/../lib/gcc/arm-none-eabi/10.3.1/../../../../arm-none-eabi/lib/thumb/v7e-m+fp/hard/libcr_c.a(ctype.o)
islower                                           /Applications/MCUXpressoIDE_11.7.0_9198/ide/plugins/com.nxp.mcuxpresso.tools.macosx_11.7.0.202209140929/tools/bin/../lib/gcc/arm-none-eabi/10.3.1/../../../../arm-none-eabi/lib/thumb/v7e-m+fp/hard/libcr_c.a(ctype.o)
isprint                                           /Applications/MCUXpressoIDE_11.7.0_9198/ide/plugins/com.nxp.mcuxpresso.tools.macosx_11.7.0.202209140929/tools/bin/../lib/gcc/arm-none-eabi/10.3.1/../../../../arm-none-eabi/lib/thumb/v7e-m+fp/hard/libcr_c.a(ctype.o)
ispunct                                           /Applications/MCUXpressoIDE_11.7.0_9198/ide/plugins/com.nxp.mcuxpresso.tools.macosx_11.7.0.202209140929/tools/bin/../lib/gcc/arm-none-eabi/10.3.1/../../../../arm-none-eabi/lib/thumb/v7e-m+fp/hard/libcr_c.a(ctype.o)
isspace                                           /Applications/MCUXpressoIDE_11.7.0_9198/ide/plugins/com.nxp.mcuxpresso.tools.macosx_11.7.0.202209140929/tools/bin/../lib/gcc/arm-none-eabi/10.3.1/../../../../arm-none-eabi/lib/thumb/v7e-m+fp/hard/libcr_c.a(ctype.o)
isupper                                           /Applications/MCUXpressoIDE_11.7.0_9198/ide/plugins/com.nxp.mcuxpresso.tools.macosx_11.7.0.202209140929/tools/bin/../lib/gcc/arm-none-eabi/10.3.1/../../../../arm-none-eabi/lib/thumb/v7e-m+fp/hard/libcr_c.a(ctype.o)
isxdigit                                          /Applications/MCUXpressoIDE_11.7.0_9198/ide/plugins/com.nxp.mcuxpresso.tools.macosx_11.7.0.202209140929/tools/bin/../lib/gcc/arm-none-eabi/10.3.1/../../../../arm-none-eabi/lib/thumb/v7e-m+fp/hard/libcr_c.a(ctype.o)
main                                              ./source/MIMXRT1176_Project.o
                                                  /Applications/MCUXpressoIDE_11.7.0_9198/ide/plugins/com.nxp.mcuxpresso.tools.macosx_11.7.0.202209140929/tools/bin/../lib/gcc/arm-none-eabi/10.3.1/../../../../arm-none-eabi/lib/thumb/v7e-m+fp/hard/libcr_nohost_nf.a(_cr__main.o)
malloc                                            /Applications/MCUXpressoIDE_11.7.0_9198/ide/plugins/com.nxp.mcuxpresso.tools.macosx_11.7.0.202209140929/tools/bin/../lib/gcc/arm-none-eabi/10.3.1/../../../../arm-none-eabi/lib/thumb/v7e-m+fp/hard/libcr_c.a(alloc.o)
                                                  ./drivers/fsl_common.o
memcpy                                            /Applications/MCUXpressoIDE_11.7.0_9198/ide/plugins/com.nxp.mcuxpresso.tools.macosx_11.7.0.202209140929/tools/bin/../lib/gcc/arm-none-eabi/10.3.1/../../../../arm-none-eabi/lib/thumb/v7e-m+fp/hard/libcr_c.a(memcpy.o)
                                                  /Applications/MCUXpressoIDE_11.7.0_9198/ide/plugins/com.nxp.mcuxpresso.tools.macosx_11.7.0.202209140929/tools/bin/../lib/gcc/arm-none-eabi/10.3.1/../../../../arm-none-eabi/lib/thumb/v7e-m+fp/hard/libcr_c.a(alloc.o)
                                                  ./utilities/fsl_str.o
memset                                            /Applications/MCUXpressoIDE_11.7.0_9198/ide/plugins/com.nxp.mcuxpresso.tools.macosx_11.7.0.202209140929/tools/bin/../lib/gcc/arm-none-eabi/10.3.1/../../../../arm-none-eabi/lib/thumb/v7e-m+fp/hard/libcr_c.a(memset.o)
                                                  /Applications/MCUXpressoIDE_11.7.0_9198/ide/plugins/com.nxp.mcuxpresso.tools.macosx_11.7.0.202209140929/tools/bin/../lib/gcc/arm-none-eabi/10.3.1/../../../../arm-none-eabi/lib/thumb/v7e-m+fp/hard/libcr_c.a(fclose.o)
                                                  /Applications/MCUXpressoIDE_11.7.0_9198/ide/plugins/com.nxp.mcuxpresso.tools.macosx_11.7.0.202209140929/tools/bin/../lib/gcc/arm-none-eabi/10.3.1/../../../../arm-none-eabi/lib/thumb/v7e-m+fp/hard/libcr_c.a(scanf.o)
                                                  /Applications/MCUXpressoIDE_11.7.0_9198/ide/plugins/com.nxp.mcuxpresso.tools.macosx_11.7.0.202209140929/tools/bin/../lib/gcc/arm-none-eabi/10.3.1/../../../../arm-none-eabi/lib/thumb/v7e-m+fp/hard/libcr_c.a(alloc.o)
                                                  ./component/serial_manager/fsl_component_serial_manager.o
                                                  ./drivers/fsl_pmu.o
                                                  ./drivers/fsl_lpuart.o
                                                  ./drivers/fsl_dcdc.o
                                                  ./drivers/fsl_clock.o
                                                  ./utilities/fsl_debug_console.o
qspiflash_config                                  ./xip/evkmimxrt1170_flexspi_nor_config.o
realloc                                           /Applications/MCUXpressoIDE_11.7.0_9198/ide/plugins/com.nxp.mcuxpresso.tools.macosx_11.7.0.202209140929/tools/bin/../lib/gcc/arm-none-eabi/10.3.1/../../../../arm-none-eabi/lib/thumb/v7e-m+fp/hard/libcr_c.a(alloc.o)
remove                                            /Applications/MCUXpressoIDE_11.7.0_9198/ide/plugins/com.nxp.mcuxpresso.tools.macosx_11.7.0.202209140929/tools/bin/../lib/gcc/arm-none-eabi/10.3.1/../../../../arm-none-eabi/lib/thumb/v7e-m+fp/hard/libcr_c.a(remove.o)
                                                  /Applications/MCUXpressoIDE_11.7.0_9198/ide/plugins/com.nxp.mcuxpresso.tools.macosx_11.7.0.202209140929/tools/bin/../lib/gcc/arm-none-eabi/10.3.1/../../../../arm-none-eabi/lib/thumb/v7e-m+fp/hard/libcr_c.a(fclose.o)
rename                                            /Applications/MCUXpressoIDE_11.7.0_9198/ide/plugins/com.nxp.mcuxpresso.tools.macosx_11.7.0.202209140929/tools/bin/../lib/gcc/arm-none-eabi/10.3.1/../../../../arm-none-eabi/lib/thumb/v7e-m+fp/hard/libcr_c.a(remove.o)
s_lpuartHandle                                    ./drivers/fsl_lpuart.o
s_lpuartIRQ                                       ./drivers/fsl_lpuart.o
s_lpuartIsr                                       ./drivers/fsl_lpuart.o
scanf                                             /Applications/MCUXpressoIDE_11.7.0_9198/ide/plugins/com.nxp.mcuxpresso.tools.macosx_11.7.0.202209140929/tools/bin/../lib/gcc/arm-none-eabi/10.3.1/../../../../arm-none-eabi/lib/thumb/v7e-m+fp/hard/libcr_c.a(scanf.o)
setvbuf                                           /Applications/MCUXpressoIDE_11.7.0_9198/ide/plugins/com.nxp.mcuxpresso.tools.macosx_11.7.0.202209140929/tools/bin/../lib/gcc/arm-none-eabi/10.3.1/../../../../arm-none-eabi/lib/thumb/v7e-m+fp/hard/libcr_c.a(setvbuf.o)
                                                  /Applications/MCUXpressoIDE_11.7.0_9198/ide/plugins/com.nxp.mcuxpresso.tools.macosx_11.7.0.202209140929/tools/bin/../lib/gcc/arm-none-eabi/10.3.1/../../../../arm-none-eabi/lib/thumb/v7e-m+fp/hard/libcr_c.a(initio.o)
sscanf                                            /Applications/MCUXpressoIDE_11.7.0_9198/ide/plugins/com.nxp.mcuxpresso.tools.macosx_11.7.0.202209140929/tools/bin/../lib/gcc/arm-none-eabi/10.3.1/../../../../arm-none-eabi/lib/thumb/v7e-m+fp/hard/libcr_c.a(scanf.o)
strlen                                            /Applications/MCUXpressoIDE_11.7.0_9198/ide/plugins/com.nxp.mcuxpresso.tools.macosx_11.7.0.202209140929/tools/bin/../lib/gcc/arm-none-eabi/10.3.1/../../../../arm-none-eabi/lib/thumb/v7e-m+fp/hard/libcr_c.a(strlen.o)
                                                  /Applications/MCUXpressoIDE_11.7.0_9198/ide/plugins/com.nxp.mcuxpresso.tools.macosx_11.7.0.202209140929/tools/bin/../lib/gcc/arm-none-eabi/10.3.1/../../../../arm-none-eabi/lib/thumb/v7e-m+fp/hard/libcr_c.a(remove.o)
                                                  /Applications/MCUXpressoIDE_11.7.0_9198/ide/plugins/com.nxp.mcuxpresso.tools.macosx_11.7.0.202209140929/tools/bin/../lib/gcc/arm-none-eabi/10.3.1/../../../../arm-none-eabi/lib/thumb/v7e-m+fp/hard/libcr_c.a(scanf.o)
                                                  ./utilities/fsl_str.o
strtod                                            /Applications/MCUXpressoIDE_11.7.0_9198/ide/plugins/com.nxp.mcuxpresso.tools.macosx_11.7.0.202209140929/tools/bin/../lib/gcc/arm-none-eabi/10.3.1/../../../../arm-none-eabi/lib/thumb/v7e-m+fp/hard/libcr_c.a(scanf.o)
strtof                                            /Applications/MCUXpressoIDE_11.7.0_9198/ide/plugins/com.nxp.mcuxpresso.tools.macosx_11.7.0.202209140929/tools/bin/../lib/gcc/arm-none-eabi/10.3.1/../../../../arm-none-eabi/lib/thumb/v7e-m+fp/hard/libcr_c.a(scanf.o)
strtol                                            /Applications/MCUXpressoIDE_11.7.0_9198/ide/plugins/com.nxp.mcuxpresso.tools.macosx_11.7.0.202209140929/tools/bin/../lib/gcc/arm-none-eabi/10.3.1/../../../../arm-none-eabi/lib/thumb/v7e-m+fp/hard/libcr_c.a(scanf.o)
strtoll                                           /Applications/MCUXpressoIDE_11.7.0_9198/ide/plugins/com.nxp.mcuxpresso.tools.macosx_11.7.0.202209140929/tools/bin/../lib/gcc/arm-none-eabi/10.3.1/../../../../arm-none-eabi/lib/thumb/v7e-m+fp/hard/libcr_c.a(scanf.o)
strtoul                                           /Applications/MCUXpressoIDE_11.7.0_9198/ide/plugins/com.nxp.mcuxpresso.tools.macosx_11.7.0.202209140929/tools/bin/../lib/gcc/arm-none-eabi/10.3.1/../../../../arm-none-eabi/lib/thumb/v7e-m+fp/hard/libcr_c.a(scanf.o)
                                                  ./utilities/fsl_str.o
strtoull                                          /Applications/MCUXpressoIDE_11.7.0_9198/ide/plugins/com.nxp.mcuxpresso.tools.macosx_11.7.0.202209140929/tools/bin/../lib/gcc/arm-none-eabi/10.3.1/../../../../arm-none-eabi/lib/thumb/v7e-m+fp/hard/libcr_c.a(scanf.o)
sysPll2Config_BOARD_BootClockRUN                  ./board/clock_config.o
sysPll2Config_BOARD_BootClockRUN_800M             ./board/clock_config.o
tolower                                           /Applications/MCUXpressoIDE_11.7.0_9198/ide/plugins/com.nxp.mcuxpresso.tools.macosx_11.7.0.202209140929/tools/bin/../lib/gcc/arm-none-eabi/10.3.1/../../../../arm-none-eabi/lib/thumb/v7e-m+fp/hard/libcr_c.a(ctype.o)
toupper                                           /Applications/MCUXpressoIDE_11.7.0_9198/ide/plugins/com.nxp.mcuxpresso.tools.macosx_11.7.0.202209140929/tools/bin/../lib/gcc/arm-none-eabi/10.3.1/../../../../arm-none-eabi/lib/thumb/v7e-m+fp/hard/libcr_c.a(ctype.o)
ungetc                                            /Applications/MCUXpressoIDE_11.7.0_9198/ide/plugins/com.nxp.mcuxpresso.tools.macosx_11.7.0.202209140929/tools/bin/../lib/gcc/arm-none-eabi/10.3.1/../../../../arm-none-eabi/lib/thumb/v7e-m+fp/hard/libcr_c.a(ungetc.o)
                                                  /Applications/MCUXpressoIDE_11.7.0_9198/ide/plugins/com.nxp.mcuxpresso.tools.macosx_11.7.0.202209140929/tools/bin/../lib/gcc/arm-none-eabi/10.3.1/../../../../arm-none-eabi/lib/thumb/v7e-m+fp/hard/libcr_c.a(scanf.o)
vfscanf                                           /Applications/MCUXpressoIDE_11.7.0_9198/ide/plugins/com.nxp.mcuxpresso.tools.macosx_11.7.0.202209140929/tools/bin/../lib/gcc/arm-none-eabi/10.3.1/../../../../arm-none-eabi/lib/thumb/v7e-m+fp/hard/libcr_c.a(scanf.o)
videoPllConfig_BOARD_BootClockRUN                 ./board/clock_config.o
videoPllConfig_BOARD_BootClockRUN_800M            ./board/clock_config.o
xmcd_data                                         ./board/xmcd.o
